c__builtin__
set
p0
((lp1
Vperson_hairlength_feature
p2
aVsnapshotUri
p3
aVperson_username_feature
p4
aVperson_hipstype_feature
p5
aVperson_tattoocount_feature
p6
aVwasGeneratedBy
p7
aVa
p8
aVperson_build_feature
p9
aVperson_haircolor_feature
p10
aVperson_cupsizeus_feature
p11
aVperson_age_feature
p12
aVurl
p13
aVcacheUrl
p14
aVperson_ethnicity_feature
p15
aVperson_grooming_feature
p16
aVuri
p17
aVperson_piercings_feature
p18
aVperson_eyecolor_feature
p19
aVperson_hairtype_feature
p20
aVperson_height_feature
p21
aVperson_bustbandsize_feature
p22
aVperson_name_feature
p23
aVperson_gender_feature
p24
atp25
Rp26
.