c__builtin__
set
p0
((lp1
Vperson_build_feature
p2
aVperson_haircolor_feature
p3
aVperson_age_feature
p4
aVperson_cupsizeus_feature
p5
aVperson_ethnicity_feature
p6
aVperson_eyecolor_feature
p7
aVperson_hairlength_feature
p8
aVperson_piercings_feature
p9
aVperson_hairtype_feature
p10
aVperson_height_feature
p11
aVperson_hipstype_feature
p12
aVperson_bustbandsize_feature
p13
aVperson_tattoocount_feature
p14
aVperson_gender_feature
p15
atp16
Rp17
.