(dp0
Vperson_build_feature
p1
c__builtin__
set
p2
((lp3
Vathleticbrstronglocationsstrongahrefantiochescortsantiochaahrefbrentwoodescortsbrentwoodaahreffranklinescortsfranklinaahrefhermitageescortshermitageaahrefmadisontnescortsmadisona
p4
aVathleticbrstronglocationsstrongahrefbluediamondescortsbluediamondaahrefhendersonnvescortshendersona
p5
aVathleticbrstronglocationsstrongahrefmilpitasescortsmilpitasaahrefsantaclaraescortssantaclaraa
p6
aVslenderbrstronglocationsstrongahrefwellesleyescortswellesleya
p7
aVcurvybrstronglocationsstrongahrefcathedralcityescortscathedralcityaahrefindianwellsescortsindianwellsaahrefpalmdesertescortspalmdesertaahrefranchomirageescortsranchomiragea
p8
aVcurvybrstronglocationsstrongahrefchesterfieldescortschesterfielda
p9
aVslenderbrstronglocationsstrongahrefedenprairieescortsedenprairieaahrefminnetonkaescortsminnetonkaaahrefsaintpaulescortssaintpaula
p10
aVathleticbrstronglocationsstrongahrefcedarparkescortscedarparkaahrefkyleescortskyleaahrefpflugervilleescortspflugervilleaahrefroundrockescortsroundrocka
p11
aVslenderbrstronglocationsstrongahrefamblerescortsambleraahrefbalacynwydescortsbalacynwydaahrefdevonpaescortsdevonaahreffortwashingtonescortsfortwashingtonaahrefhorshamescortshorshamaahrefmediaescortsmediaaahrefnewtownsquareescortsnewtownsquareaahrefplymouthmeetingescortsplymouthmeetingaahrefspringfieldpaescortsspringfieldaahrefvalleyforgeescortsvalleyforgeaahrefwillowgroveescortswillowgrovea
p12
aVcurvybrstronglocationsstrongahrefkingofprussiaescortskingofprussiaa
p13
aVaveragebrstronglocationsstrongahrefelcajonescortselcajona
p14
aVcurvybrstronglocationsstrongahrefbeverlyhillsescortsbeverlyhillsaahrefcarsonescortscarsonaahrefculvercityescortsculvercityaahrefelsegundoescortselsegundoaahrefinglewoodescortsinglewoodaahreflawndaleescortslawndaleaahreflongbeachcaescortslongbeachaahrefmanhattanbeachescortsmanhattanbeachaahrefmarinadelreyescortsmarinadelreyaahrefnorthhollywoodcaescortsnorthhollywoodaahrefredondobeachescortsredondobeachaahrefsantamonicaescortssantamonicaaahrefshermanoakscaescortsshermanoaksaahrefsouthgateescortssouthgateaahrefstudiocitycaescortsstudiocityaahreftorranceescortstorranceaahrefvannuyscaescortsvannuysaahrefveniceescortsveniceaahrefwesthollywoodescortswesthollywooda
p15
aVslenderbrstronglocationsstrongahrefalexandriaescortsalexandriaaahrefandrewsairforcebaescortsandrewsairforcebaseaahrefarlingtonvaescortsarlingtonaahrefashtonescortsashtonaahrefbeltsvilleescortsbeltsvilleaahrefbethesdaescortsbethesdaaahrefbladensburgescortsbladensburgaahrefbowiemdescortsbowieaahrefcapitolheightsescortscapitolheightsaahrefclintonescortsclintonaahrefcollegeparkescortscollegeparkaahrefdistrictheightsescortsdistrictheightsaahreffairfaxescortsfairfaxaahreffallschurchescortsfallschurchaahrefgaithersburgescortsgaithersburgaahrefgreenbeltescortsgreenbeltaahrefhyattsvilleescortshyattsvilleaahreflanhamescortslanhamaahreflaurelescortslaurelaahrefoxonhillescortsoxonhillaahrefpotomacescortspotomacaahrefrockvilleescortsrockvilleaahrefsilverspringescortssilverspringaahrefspringfieldvaescortsspringfieldaahrefsuitlandescortssuitlandaahreftakomaparkescortstakomaparkaahreftemplehillsescortstemplehillsaahrefuppermarlboroescortsuppermarlboroaahrefwaldorfescortswaldorfaahrefwashingtonescortswashingtonaahrefwoodbridgevaescortswoodbridgea
p16
aVcurvybrstronglocationsstrongahrefnorthhollywoodescortsnorthhollywoodaahrefshermanoaksescortsshermanoaksaahrefstudiocityescortsstudiocityaahrefvannuysescortsvannuysa
p17
aVaveragebrstronglocationsstrongahrefbluediamondescortsbluediamondaahrefhendersonnvescortshendersona
p18
aVslenderbrstronglocationsstrongahrefbeverlyhillsescortsbeverlyhillsaahrefcarsonescortscarsonaahrefgardenaescortsgardenaaahrefglendalecaescortsglendaleaahrefhawthorneescortshawthorneaahrefinglewoodescortsinglewoodaahreflawndaleescortslawndaleaahreflongbeachcaescortslongbeachaahrefmanhattanbeachescortsmanhattanbeachaahrefmarinadelreyescortsmarinadelreyaahrefnorthhollywoodcaescortsnorthhollywoodaahrefnorwalkescortsnorwalkaahrefpasadenaescortspasadenaaahrefredondobeachescortsredondobeachaahrefsangabrielescortssangabrielaahrefsantamonicaescortssantamonicaaahrefshermanoakscaescortsshermanoaksaahrefsouthgateescortssouthgateaahrefstudiocitycaescortsstudiocityaahreftorranceescortstorranceaahrefvannuyscaescortsvannuysaahrefveniceescortsveniceaahrefwesthollywoodescortswesthollywoodaahrefwhittierescortswhittiera
p19
aVcurvybrstronglocationsstrongahrefdelmarescortsdelmaraahreflajollaescortslajollaaahreflamesaescortslamesaaahrefpowayescortspowaya
p20
aVslenderbrstronglocationsstrongahrefanaheimescortsanaheimaahreffullertonescortsfullertona
p21
aVcurvybrstronglocationsstrongahreflithoniaescortslithoniaa
p22
aVcurvybrstronglocationsstrongahrefalexandriaescortsalexandriaaahrefandrewsairforcebaescortsandrewsairforcebaseaahrefarlingtonvaescortsarlingtonaahreffairfaxescortsfairfaxaahreffallschurchescortsfallschurchaahrefpotomacescortspotomacaahrefrockvilleescortsrockvilleaahrefsilverspringescortssilverspringaahrefspringfieldvaescortsspringfieldaahrefwashingtonescortswashingtona
p23
aVathleticbrstronglocationsstrongahrefciceroescortsciceroaahrefoakparkescortsoakparka
p24
aVcurvybrstronglocationsstrongahrefcherryhillescortscherryhillaahrefmountlaurelescortsmountlaurela
p25
aVcurvybrstronglocationsstrongahrefdesplainesescortsdesplainesa
p26
aVcurvybrstronglocationsstrongahrefaltoonaiaescortsaltoonaaahrefcliveescortscliveaahrefwestdesmoinesescortswestdesmoinesa
p27
aVathleticbrstronglocationsstrongahrefalexandriaescortsalexandriaaahrefspringfieldvaescortsspringfielda
p28
aVcurvybrstronglocationsstrongahrefmidlandescortsmidlanda
p29
aVveryheavy
p30
aVaveragebrstronglocationsstrongahrefirvingescortsirvinga
p31
aVcurvybrstronglocationsstrongahrefastoriaescortsastoriaaahrefbaysideescortsbaysideaahrefcarleplaceescortscarleplaceaahrefcoronaescortscoronaaahrefelmhurstescortselmhurstaahrefelmontescortselmontaahreffairfieldnjescortsfairfieldaahrefflushingescortsflushingaahrefforesthillsescortsforesthillsaahrefgardencitynyescortsgardencityaahrefgreatneckescortsgreatneckaahrefharrisonnjescortsharrisonaahrefhempsteadescortshempsteadaahrefinwoodescortsinwoodaahrefjacksonheightsescortsjacksonheightsaahrefjamaicaescortsjamaicaaahreflindenescortslindenaahreflittleneckescortslittleneckaahreflongislandcityescortslongislandcityaahrefmaspethescortsmaspethaahrefqueensvillageescortsqueensvillageaahrefrichmondhillescortsrichmondhillaahrefrockvillecentreescortsrockvillecentreaahrefrosedalenyescortsrosedaleaahrefspringfieldnjescortsspringfieldaahrefspringfieldgardensescortsspringfieldgardensaahrefsunnysideescortssunnysideaahrefvalleystreamescortsvalleystreamaahrefwesthempsteadescortswesthempsteadaahrefwhitestoneescortswhitestoneaahrefwoodhavenescortswoodhavenaahrefwoodsideescortswoodsidea
p32
aVcurvybrstronglocationsstrongahrefjerseycityescortsjerseycityaahrefmahwahescortsmahwaha
p33
aVathleticbrstronglocationsstrongahrefhomesteadescortshomesteadaahrefmiamibeachescortsmiamibeachaahrefmiamigardensescortsmiamigardensaahrefnorthmiamibeachescortsnorthmiamibeacha
p34
aVcurvybrstronglocationsstrongahrefalamedaescortsalamedaaahrefberkeleyescortsberkeleyaahrefcastrovalleyescortscastrovalleyaahrefconcordescortsconcordaahrefelcerritoescortselcerritoaahrefemeryvillecaescortsemeryvilleaahrefhaywardescortshaywardaahrefherculesescortsherculesaahrefmartinezescortsmartinezaahrefpinoleescortspinoleaahrefpleasanthillescortspleasanthillaahrefrichmondcaescortsrichmondaahrefsanleandrocaescortssanleandroaahrefsanpabloescortssanpabloaahrefsanrafaelcaescortssanrafaelaahrefsanramonescortssanramonaahrefvallejoescortsvallejoaahrefwalnutcreekescortswalnutcreeka
p35
aVslenderbrstronglocationsstrongahrefwashingtonescortswashingtona
p36
aVcurvybrstronglocationsstrongahrefemeryvilleescortsemeryvilleaahrefrichmondcaescortsrichmondaahrefsanleandroescortssanleandroaahrefsanrafaelescortssanrafaelaahrefsouthsanfranciscoescortssouthsanfranciscoa
p37
aVaveragebrstronglocationsstrongahrefarlingtonescortsarlingtonaahrefbedfordescortsbedfordaahrefeulessescortseulessaahrefhurstescortshursta
p38
aVtinybrstronglocationsstrongahrefbellevueescortsbellevueaahrefbothellescortsbothellaahrefedmondsescortsedmondsaahrefkirklandescortskirklandaahrefredmondescortsredmonda
p39
aVathleticbrstronglocationsstrongahrefbonitaspringsescortsbonitaspringsaahrefcapecoralescortscapecorala
p40
aVcurvybrstronglocationsstrongahrefbonitaescortsbonitaaahrefchulavistaescortschulavistaaahrefdelmarescortsdelmaraahrefelcajonescortselcajonaahreflajollaescortslajollaaahreflamesaescortslamesaaahrefnationalcityescortsnationalcitya
p41
aVathleticbrstronglocationsstrongahrefcliffsideparkescortscliffsideparkaahrefpalisadesescortspalisadesaahrefrutherfordescortsrutherfordaahrefsecaucusescortssecaucusa
p42
aVathleticbrstronglocationsstrongahrefsaintpaulescortssaintpaula
p43
aVtinybrstronglocationsstrongahrefbeverlyhillsescortsbeverlyhillsaahrefculvercityescortsculvercityaahrefhawthorneescortshawthorneaahrefmanhattanbeachescortsmanhattanbeachaahrefmarinadelreyescortsmarinadelreyaahrefsantamonicaescortssantamonicaaahrefsouthgateescortssouthgateaahreftorranceescortstorranceaahrefveniceescortsveniceaahrefwesthollywoodescortswesthollywooda
p44
aVtinybrstronglocationsstrongahrefchandlerescortschandleraahrefmesaescortsmesaaahrefscottsdaleescortsscottsdaleaahreftempeescortstempea
p45
aVcurvybrstronglocationsstrongahreflosgatosescortslosgatosaahrefsantaclaraescortssantaclaraaahrefsaratogaescortssaratogaa
p46
aVaveragebrstronglocationsstrongahreflinthicumheightsescortslinthicumheightsa
p47
aVcurvybrstronglocationsstrongahrefnorthhoustonescortsnorthhoustona
p48
aVathleticbrstronglocationsstrongahreflongbeachcaescortslongbeacha
p49
aVtinybrstronglocationsstrongahrefrosevilleescortsrosevillea
p50
aVcurvybrstronglocationsstrongahrefbluediamondescortsbluediamondaahrefhendersonnvescortshendersona
p51
aVslenderbrstronglocationsstrongahrefcathedralcityescortscathedralcityaahrefranchomirageescortsranchomiragea
p52
aVslenderbrstronglocationsstrongahrefcheltenhamescortscheltenhamaahrefchesterpaescortschesteraahrefdarbyescortsdarbyaahrefspringfieldpaescortsspringfielda
p53
aVslenderbrstronglocationsstrongahrefalhambraescortsalhambraaahrefbeverlyhillsescortsbeverlyhillsaahrefburbankcaescortsburbankaahrefculvercityescortsculvercityaahreflongbeachcaescortslongbeachaahrefnorthhollywoodcaescortsnorthhollywoodaahrefnorwalkescortsnorwalkaahrefpasadenaescortspasadenaaahrefrosemeadescortsrosemeadaahrefsangabrielescortssangabrielaahrefwesthollywoodescortswesthollywoodaahrefwhittierescortswhittiera
p54
aVslenderbrstronglocationsstrongahrefsantaanaescortssantaanaa
p55
aVaveragebrstronglocationsstrongahrefcamarilloescortscamarilloaahrefoxnardescortsoxnardaahrefporthuenemeescortsporthuenemeaahrefsantapaulaescortssantapaulaaahrefventuraescortsventuraa
p56
aVathleticbrstronglocationsstrongahrefbeavertonescortsbeavertonaahrefgreshamescortsgreshama
p57
aVtinybrstronglocationsstrongahrefgulfportescortsgulfporta
p58
aVslenderbrstronglocationsstrongahrefmidlandescortsmidlanda
p59
aVcurvybrstronglocationsstrongahrefhendersonnvescortshendersona
p60
aVathleticbrstronglocationsstrongahrefbroomfieldescortsbroomfieldaahreflongmontescortslongmontaahreflouisvillecoescortslouisvillea
p61
aVathleticbrstronglocationsstrongahrefminnetonkaescortsminnetonkaa
p62
aVathleticbrstronglocationsstrongahrefhendersonnvescortshendersona
p63
aVaveragebrstronglocationsstrongahrefbixbyescortsbixbyaahrefbrokenarrowescortsbrokenarrowaahrefowassoescortsowassoa
p64
aVathleticbrstronglocationsstrongahrefdanvillecaescortsdanvilleaahrefemeryvillecaescortsemeryvilleaahrefhaywardescortshaywardaahreflafayettecaescortslafayetteaahrefmartinezescortsmartinezaahrefpleasanthillescortspleasanthillaahrefrichmondcaescortsrichmondaahrefwalnutcreekescortswalnutcreeka
p65
aVathleticbrstronglocationsstrongahrefmountainviewescortsmountainviewaahrefsantaclaraescortssantaclaraaahrefsunnyvaleescortssunnyvalea
p66
aVcurvybrstronglocationsstrongahrefbeavertonescortsbeavertonaahrefclackamasescortsclackamasaahrefgreshamescortsgreshamaahrefvancouverwaescortsvancouvera
p67
aVcurvybrstronglocationsstrongahrefdinubaescortsdinubaaahrefhanfordescortshanfordaahreftulareescortstulareaahrefvisaliaescortsvisaliaa
p68
aVtinybrstronglocationsstrongahrefsaintcharlesescortssaintcharlesa
p69
aVslenderbrstronglocationsstrongahrefbeverlyhillsescortsbeverlyhillsaahrefculvercityescortsculvercityaahrefhawthorneescortshawthorneaahrefinglewoodescortsinglewoodaahreflawndaleescortslawndaleaahreflongbeachcaescortslongbeachaahrefmanhattanbeachescortsmanhattanbeachaahrefnorwalkescortsnorwalkaahrefredondobeachescortsredondobeachaahrefstudiocitycaescortsstudiocityaahrefveniceescortsveniceaahrefwesthollywoodescortswesthollywooda
p70
aVcurvybrstronglocationsstrongahrefshermanoakscaescortsshermanoaksa
p71
aVtinybrstronglocationsstrongahrefbonitaspringsescortsbonitaspringsaahrefcapecoralescortscapecoralaahreffortmyersbeachescortsfortmyersbeachaahrefnorthfortmyersescortsnorthfortmyersa
p72
aVslenderbrstronglocationsstrongahrefdalycityescortsdalycityaahrefemeryvilleescortsemeryvilleaahrefmillbraeescortsmillbraeaahrefsanrafaelescortssanrafaelaahrefsouthsanfranciscoescortssouthsanfranciscoa
p73
aVslenderbrstronglocationsstrongahrefcherryhillescortscherryhilla
p74
aVcurvybrstronglocationsstrongahreflakeforestescortslakeforestaahrefmissionviejoescortsmissionviejoaahreftustinescortstustina
p75
aVathleticbrstronglocationsstrongahrefemeryvilleescortsemeryvilleaahrefmillbraeescortsmillbraeaahrefsouthsanfranciscoescortssouthsanfranciscoa
p76
aVcurvybrstronglocationsstrongahrefdoverdeescortsdovera
p77
aVtiny
p78
aVbbw
p79
aVslenderbrstronglocationsstrongahrefbluespringsescortsbluespringsaahrefgrandviewescortsgrandviewaahrefindependenceescortsindependenceaahrefleawoodescortsleawoodaahreflenexaescortslenexaaahrefmissionescortsmissionaahrefoverlandparkescortsoverlandparkaahrefshawneeescortsshawneeaahrefshawneemissionescortsshawneemissiona
p80
aVcurvybrstronglocationsstrongahrefhazletescortshazleta
p81
aVcurvybrstronglocationsstrongahrefarlingtontxescortsarlingtona
p82
aVtinybrstronglocationsstrongahrefchatsworthescortschatsworthaahrefnorthhollywoodescortsnorthhollywoodaahrefstudiocityescortsstudiocityaahrefsylmarescortssylmara
p83
aVathleticbrstronglocationsstrongahrefkingwoodescortskingwoodaahreflaporteescortslaporteaahrefpasadenatxescortspasadenaa
p84
aVathleticbrstronglocationsstrongahrefirvingescortsirvinga
p85
aVathleticbrstronglocationsstrongahrefboutteescortsboutteaahrefharveyescortsharveyaahrefkennerescortskenneraahrefmetairieescortsmetairiea
p86
aVathleticbrstronglocationsstrongahrefcamdenescortscamdenaahrefcherryhillescortscherryhillaahrefgloucestercityescortsgloucestercityaahrefmapleshadeescortsmapleshadeaahrefmarltonescortsmarltonaahrefmountlaurelescortsmountlaurelaahrefpaulsboroescortspaulsboroaahrefsicklervilleescortssicklervilleaahrefvoorheesescortsvoorheesa
p87
aVaveragebrstronglocationsstrongahrefhiawathaescortshiawathaaahrefmarioniaescortsmariona
p88
aVathleticbrstronglocationsstrongahrefbuenaparkescortsbuenaparka
p89
aVcurvybrstronglocationsstrongahrefgirardescortsgirardaahrefhermitagepaescortshermitageaahrefhubbardescortshubbardaahrefnilesohescortsnilesaahrefstruthersescortsstruthersaahrefwarrenohescortswarrena
p90
aVslenderbrstronglocationsstrongahrefanaheimescortsanaheimaahrefbreaescortsbreaaahreffullertonescortsfullertonaahrefplacentiaescortsplacentiaa
p91
aVslenderbrstronglocationsstrongahrefcathedralcityescortscathedralcityaahrefindianwellsescortsindianwellsaahrefpalmdesertescortspalmdesertaahrefranchomirageescortsranchomiragea
p92
aVslenderbrstronglocationsstrongahrefeastpeoriaescortseastpeoriaa
p93
aVcurvybrstronglocationsstrongahrefbellevueescortsbellevueaahrefedmondsescortsedmondsa
p94
aVaveragebrstronglocationsstrongahrefatcoescortsatcoaahrefbarringtonescortsbarringtonaahrefbellmawrescortsbellmawraahrefberlinnjescortsberlinaahrefblackwoodescortsblackwoodaahrefburlingtonnjescortsburlingtonaahrefcamdenescortscamdenaahrefcherryhillescortscherryhillaahrefclementonescortsclementonaahrefdeptfordescortsdeptfordaahrefgibbstownescortsgibbstownaahrefglendoraescortsglendoraaahrefgloucestercityescortsgloucestercityaahreflumbertonescortslumbertonaahrefmapleshadeescortsmapleshadeaahrefmarltonescortsmarltonaahrefmoorestownescortsmoorestownaahrefmounthollyescortsmounthollyaahrefmountlaurelescortsmountlaurelaahrefnationalparkescortsnationalparkaahrefpaulsboroescortspaulsboroaahrefpennsaukenescortspennsaukenaahrefrunnemedeescortsrunnemedeaahrefsicklervilleescortssicklervilleaahrefstratfordnjescortsstratfordaahrefswedesboroescortsswedesboroaahrefvoorheesescortsvoorheesaahrefwestvilleescortswestvilleaahrefwillingboroescortswillingboroa
p95
aVthin
p96
aVcurvybrstronglocationsstrongahrefspringvalleycaescortsspringvalleya
p97
aVbbwbrstronglocationsstrongahrefglendaleazescortsglendaleaahrefmesaescortsmesaaahrefscottsdaleescortsscottsdalea
p98
aVcurvybrstronglocationsstrongahrefmarinaescortsmarinaaahrefmontereyescortsmontereyaahrefsalinasescortssalinasa
p99
aVathleticbrstronglocationsstrongahrefsanrafaelescortssanrafaela
p100
aVathleticbrstronglocationsstrongahrefhollandescortshollandaahrefmaumeeescortsmaumeea
p101
aVslenderbrstronglocationsstrongahrefunioncitygaescortsunioncitya
p102
aVslenderbrstronglocationsstrongahrefsanrafaelescortssanrafaela
p103
aVathleticbrstronglocationsstrongahrefbeavertonescortsbeavertona
p104
aVslim
p105
aVathleticbrstronglocationsstrongahrefalisoviejoescortsalisoviejoaahrefcostamesaescortscostamesaaahreffountainvalleyescortsfountainvalleyaahrefhuntingtonbeachescortshuntingtonbeachaahrefirvineescortsirvineaahreflagunahillsescortslagunahillsaahreflakeforestescortslakeforestaahrefmissionviejoescortsmissionviejoaahrefnewportbeachescortsnewportbeachaahrefsanjuancapistranoescortssanjuancapistranoaahreftustinescortstustina
p106
aVbbwbrstronglocationsstrongahrefanaheimescortsanaheimaahrefbuenaparkescortsbuenaparkaahrefcostamesaescortscostamesaaahreffullertonescortsfullertonaahrefirvineescortsirvineaahreforangeescortsorangeaahrefsantaanaescortssantaanaa
p107
aVcurvybrstronglocationsstrongahrefapexescortsapexaahrefcaryescortscaryaahrefclaytonescortsclaytonaahrefdurhamescortsdurhamaahreffuquayvarinaescortsfuquayvarinaaahrefgarnerescortsgarneraahrefmorrisvilleescortsmorrisvilleaahrefrolesvilleescortsrolesvilleaahrefwakeforestescortswakeforestaahrefwendellescortswendella
p108
aVathleticbrstronglocationsstrongahrefanaheimescortsanaheima
p109
aVbbwbrstronglocationsstrongahrefmilpitasescortsmilpitasa
p110
aVbbwbrstronglocationsstrongahrefsouthsanfranciscoescortssouthsanfranciscoa
p111
aVtinybrstronglocationsstrongahrefbellevueescortsbellevueaahrefkentwaescortskentaahrefrentonescortsrentona
p112
aVaveragebrstronglocationsstrongahreflamontescortslamonta
p113
aVcurvybrstronglocationsstrongahrefcatonsvilleescortscatonsvilleaahrefcolumbiaescortscolumbiaaahrefjessupescortsjessupaahreflaurelmdescortslaurelaahreftowsonescortstowsona
p114
aVaveragebrstronglocationsstrongahrefburnsvilleescortsburnsvilleaahrefedenprairieescortsedenprairieaahrefminnetonkaescortsminnetonkaaahrefmoundescortsmoundaahrefsaintpaulescortssaintpaula
p115
aVcurvybrstronglocationsstrongahrefsouthhoustonescortssouthhoustonaahrefstaffordescortsstaffordaahrefsugarlandescortssugarlanda
p116
aVaveragebrstronglocationsstrongahreffortbenningescortsfortbenninga
p117
aVcurvybrstronglocationsstrongahrefindependenceohescortsindependencea
p118
aVcurvybrstronglocationsstrongahrefbloomingtonilescortsbloomingtonaahrefnormalescortsnormala
p119
aVathleticbrstronglocationsstrongahrefastoriaescortsastoriaaahrefbaysideescortsbaysideaahrefcarleplaceescortscarleplaceaahrefcoronaescortscoronaaahrefelmhurstescortselmhurstaahrefelmontescortselmontaahreffairfieldnjescortsfairfieldaahrefflushingescortsflushingaahrefforesthillsescortsforesthillsaahrefgardencitynyescortsgardencityaahrefharrisonnjescortsharrisonaahrefhempsteadescortshempsteadaahrefinwoodescortsinwoodaahrefjacksonheightsescortsjacksonheightsaahrefjamaicaescortsjamaicaaahreflindenescortslindenaahreflittleneckescortslittleneckaahreflongislandcityescortslongislandcityaahrefmaspethescortsmaspethaahrefqueensvillageescortsqueensvillageaahrefrichmondhillescortsrichmondhillaahrefrockvillecentreescortsrockvillecentreaahrefspringfieldnjescortsspringfieldaahrefspringfieldgardensescortsspringfieldgardensaahrefsunnysideescortssunnysideaahrefvalleystreamescortsvalleystreamaahrefwesthempsteadescortswesthempsteadaahrefwoodhavenescortswoodhavenaahrefwoodsideescortswoodsidea
p120
aVslenderbrstronglocationsstrongahrefcastrovalleyescortscastrovalleyaahrefhaywardescortshaywardaahrefsanleandrocaescortssanleandroaahrefunioncityescortsunioncitya
p121
aVaveragebrstronglocationsstrongahrefwashingtonescortswashingtona
p122
aVcurvybrstronglocationsstrongahrefbraintreeescortsbraintreeaahrefbrooklineescortsbrooklineaahrefcambridgemaescortscambridgeaahrefcharlestownescortscharlestownaahrefdedhamescortsdedhamaahrefhydeparkescortshydeparkaahreftewksburyescortstewksburyaahrefwalthamescortswalthamaahrefwatertownmaescortswatertownaahrefwoburnescortswoburna
p123
aVcurvybrstronglocationsstrongahrefbeverlyhillsescortsbeverlyhillsa
p124
aVaveragebrstronglocationsstrongahrefhallandaleescortshallandalea
p125
aVathleticbrstronglocationsstrongahrefbrisbaneescortsbrisbaneaahrefburlingameescortsburlingameaahrefdalycityescortsdalycityaahrefmillbraeescortsmillbraeaahrefredwoodcityescortsredwoodcityaahrefsanbrunoescortssanbrunoaahrefsanmateoescortssanmateoaahrefsouthsanfranciscoescortssouthsanfranciscoa
p126
aVathleticbrstronglocationsstrongahrefbloomingtonilescortsbloomingtonaahrefnormalescortsnormala
p127
aVaveragebrstronglocationsstrongahrefarcataescortsarcataaahrefeurekaescortseurekaa
p128
aVaveragebrstronglocationsstrongahrefdecaturescortsdecaturaahreflithoniaescortslithoniaaahrefnorcrossescortsnorcrossaahrefredanescortsredanaahrefstonemountainescortsstonemountainaahreftuckerescortstuckera
p129
aVcurvybrstronglocationsstrongahrefbayonneescortsbayonneaahrefbellevillenjescortsbellevilleaahrefbergenfieldescortsbergenfieldaahrefbloomfieldescortsbloomfieldaahrefcliffsideparkescortscliffsideparkaahrefcliftonescortscliftonaahrefeasthanoverescortseasthanoveraahrefeastorangeescortseastorangeaahrefeastrutherfordescortseastrutherfordaahrefedgewaternjescortsedgewateraahrefenglewoodescortsenglewoodaahreffairlawnescortsfairlawnaahreffortleeescortsfortleeaahrefgarfieldescortsgarfieldaahrefhackensackescortshackensackaahrefharrisonescortsharrisonaahrefhillsideescortshillsideaahrefhobokenescortshobokenaahrefjerseycityescortsjerseycityaahrefleoniaescortsleoniaaahreflittleferryescortslittleferryaahreflodiescortslodiaahreflyndhurstescortslyndhurstaahrefmahwahescortsmahwahaahrefmaplewoodescortsmaplewoodaahrefmontclairescortsmontclairaahrefnewmilfordescortsnewmilfordaahrefnewarkescortsnewarkaahrefnorthbergenescortsnorthbergenaahrefnutleyescortsnutleyaahreforangenjescortsorangeaahrefpalisadesescortspalisadesaahrefpalisadesparkescortspalisadesparkaahrefparamusescortsparamusaahrefpassaicescortspassaicaahreframseyescortsramseyaahrefridgefieldescortsridgefieldaahrefrochelleparkescortsrochelleparkaahrefrutherfordescortsrutherfordaahrefsecaucusescortssecaucusaahrefsouthhackensackescortssouthhackensackaahrefteaneckescortsteaneckaahreftotowaescortstotowaaahrefunionescortsunionaahrefunioncitynjescortsunioncityaahrefwayneescortswayneaahrefweehawkenescortsweehawkenaahrefwestnewyorkescortswestnewyorkaahrefwestorangeescortswestorangea
p130
aVcurvybrstronglocationsstrongahrefceresescortsceresaahrefmantecaescortsmantecaaahrefoakdaleescortsoakdaleaahrefriponescortsriponaahrefsalidaescortssalidaaahrefturlockescortsturlocka
p131
aVcurvybrstronglocationsstrongahrefmidvaleescortsmidvaleaahrefparkcityescortsparkcitya
p132
aVcurvybrstronglocationsstrongahrefharveyescortsharveyaahrefkennerescortskenneraahrefmetairieescortsmetairiea
p133
aVslimslender
p134
aVbbwbrstronglocationsstrongahrefceresescortsceresaahrefmantecaescortsmantecaaahrefoakdaleescortsoakdaleaahrefpattersonescortspattersonaahrefriponescortsriponaahrefsalidaescortssalidaaahrefturlockescortsturlocka
p135
aVathletic
p136
aVathleticbrstronglocationsstrongahrefbrisbaneescortsbrisbaneaahrefdalycityescortsdalycityaahrefmillbraeescortsmillbraeaahrefsouthsanfranciscoescortssouthsanfranciscoa
p137
aVathleticbrstronglocationsstrongahreftroyescortstroya
p138
aVslenderbrstronglocationsstrongahrefspringfieldescortsspringfieldaahrefwestmiltonescortswestmiltona
p139
aVcurvybrstronglocationsstrongahrefturlockescortsturlocka
p140
aVaveragebrstronglocationsstrongahrefbelmontescortsbelmontaahrefconcordncescortsconcordaahreffortmillescortsfortmillaahrefgastoniaescortsgastoniaaahrefhuntersvilleescortshuntersvilleaahrefmatthewsescortsmatthewsaahrefpinevilleescortspinevillea
p141
aVtinybrstronglocationsstrongahrefclintontownshipescortsclintontownshipaahrefdearbornescortsdearbornaahrefdearbornheightsescortsdearbornheightsaahreffarmingtonescortsfarmingtonaahrefmadisonheightsescortsmadisonheightsaahrefroyaloakescortsroyaloakaahrefsouthfieldescortssouthfieldaahrefsterlingheightsescortssterlingheightsaahreftroyescortstroyaahrefuticamiescortsuticaaahrefwarrenescortswarrena
p142
aVslenderbrstronglocationsstrongahrefcarlisleescortscarlisleaahrefhersheyescortshersheyaahrefmechanicsburgescortsmechanicsburgaahrefnewcumberlandescortsnewcumberlandaahrefpalmyraescortspalmyraa
p143
aVslenderbrstronglocationsstrongahrefburlingameescortsburlingameaahrefemeryvilleescortsemeryvilleaahrefsanbrunoescortssanbrunoaahrefsanmateoescortssanmateoaahrefsanrafaelescortssanrafaelaahrefsouthsanfranciscoescortssouthsanfranciscoa
p144
aVcurvybrstronglocationsstrongahrefburnsvilleescortsburnsvilleaahrefedenprairieescortsedenprairieaahrefhopkinsescortshopkinsaahrefminnetonkaescortsminnetonkaaahrefmoundescortsmoundaahrefsaintpaulescortssaintpaulaahrefsavageescortssavagea
p145
aVcurvybrstronglocationsstrongahrefranchocordovaescortsranchocordovaa
p146
aVfit
p147
aVathleticbrstronglocationsstrongahrefirvineescortsirvineaahreflagunahillsescortslagunahillsa
p148
aVathleticbrstronglocationsstrongahrefarlingtonvaescortsarlingtonaahrefdistrictheightsescortsdistrictheightsaahreffairfaxescortsfairfaxaahrefwashingtonescortswashingtona
p149
aVtinybrstronglocationsstrongahrefwashingtonescortswashingtona
p150
aVaveragebrstronglocationsstrongahrefharkerheightsescortsharkerheightsa
p151
aVathleticbrstronglocationsstrongahrefsalinasescortssalinasa
p152
aVathleticbrstronglocationsstrongahrefemeryvilleescortsemeryvilleaahrefpacificaescortspacificaaahrefsanleandroescortssanleandroaahrefsanmateoescortssanmateoaahrefsouthsanfranciscoescortssouthsanfranciscoa
p153
aVslenderbrstronglocationsstrongahreftewksburyescortstewksburya
p154
aVcurvybrstronglocationsstrongahrefbeltsvilleescortsbeltsvilleaahrefbethesdaescortsbethesdaaahrefbowiemdescortsbowieaahrefcapitolheightsescortscapitolheightsaahreflaurelescortslaurelaahrefsilverspringescortssilverspringaahrefwaldorfescortswaldorfa
p155
aVslenderbrstronglocationsstrongahrefhollywoodescortshollywooda
p156
aVslenderbrstronglocationsstrongahrefmagnaescortsmagnaaahrefmidvaleescortsmidvaleaahrefparkcityescortsparkcityaahrefsandyescortssandyaahrefwoodscrossescortswoodscrossa
p157
aVathleticbrstronglocationsstrongahrefeagleescortseagleaahrefgardencityidescortsgardencityaahrefmeridianescortsmeridiana
p158
aVcurvybrstronglocationsstrongahrefarcataescortsarcataaahrefeurekaescortseurekaa
p159
aVathleticbrstronglocationsstrongahrefchandlerescortschandleraahrefgilbertescortsgilbertaahrefmesaescortsmesaaahrefscottsdaleescortsscottsdaleaahreftempeescortstempea
p160
aVbig
p161
aVtinybrstronglocationsstrongahrefalexandriaescortsalexandriaaahrefarlingtonvaescortsarlingtonaahreffairfaxescortsfairfaxa
p162
aVslenderbrstronglocationsstrongahrefaddisonescortsaddisona
p163
aVslenderbrstronglocationsstrongahrefcheltenhamescortscheltenhamaahrefchesterpaescortschesteraahrefdarbyescortsdarbyaahrefessingtonescortsessingtonaahreffortwashingtonescortsfortwashingtonaahrefkingofprussiaescortskingofprussiaaahrefspringfieldpaescortsspringfieldaahrefupperdarbyescortsupperdarbya
p164
aVaveragebrstronglocationsstrongahrefbeavertonescortsbeavertonaahrefclackamasescortsclackamasaahrefgreshamescortsgreshamaahrefhillsboroescortshillsboroaahreflakeoswegoescortslakeoswegoaahreftualatinescortstualatinaahrefvancouverwaescortsvancouveraahrefwilsonvilleescortswilsonvillea
p165
aVaveragebrstronglocationsstrongahrefmandanescortsmandana
p166
aVtinybrstronglocationsstrongahrefmaumeeescortsmaumeea
p167
aVslenderbrstronglocationsstrongahrefbonitaescortsbonitaaahrefchulavistaescortschulavistaaahrefdelmarescortsdelmaraahrefelcajonescortselcajonaahreflajollaescortslajollaaahreflamesaescortslamesaaahrefnationalcityescortsnationalcityaahrefsolanabeachescortssolanabeacha
p168
aVathleticbrstronglocationsstrongahrefalhambraescortsalhambraaahrefarcadiaescortsarcadiaaahrefartesiaescortsartesiaaahrefbellescortsbellaahrefbellgardensescortsbellgardensaahrefbeverlyhillsescortsbeverlyhillsaahrefburbankcaescortsburbankaahrefcarsonescortscarsonaahrefculvercityescortsculvercityaahrefdowneyescortsdowneyaahrefelmonteescortselmonteaahrefelsegundoescortselsegundoaahrefgardenaescortsgardenaaahrefglendalecaescortsglendaleaahrefharborcityescortsharborcityaahrefhawthorneescortshawthorneaahrefhuntingtonparkescortshuntingtonparkaahrefinglewoodescortsinglewoodaahreflawndaleescortslawndaleaahreflomitaescortslomitaaahreflongbeachcaescortslongbeachaahrefmanhattanbeachescortsmanhattanbeachaahrefmarinadelreyescortsmarinadelreyaahrefmontebelloescortsmontebelloaahrefmontereyparkescortsmontereyparkaahrefnorthhollywoodcaescortsnorthhollywoodaahrefnorwalkescortsnorwalkaahrefpasadenaescortspasadenaaahrefpicoriveraescortspicoriveraaahrefplayavistaescortsplayavistaaahrefredondobeachescortsredondobeachaahrefrosemeadescortsrosemeadaahrefsangabrielescortssangabrielaahrefsantamonicaescortssantamonicaaahrefshermanoakscaescortsshermanoaksaahrefsierramadreescortssierramadreaahrefsouthgateescortssouthgateaahrefstudiocitycaescortsstudiocityaahreftorranceescortstorranceaahrefvannuyscaescortsvannuysaahrefveniceescortsveniceaahrefwesthollywoodescortswesthollywoodaahrefwhittierescortswhittiera
p169
aVslenderbrstronglocationsstrongahrefbonitaspringsescortsbonitaspringsaahrefcapecoralescortscapecoralaahrefesteroescortsesteroaahreffortmyersbeachescortsfortmyersbeachaahrefnorthfortmyersescortsnorthfortmyersa
p170
aVathleticbrstronglocationsstrongahrefkingofprussiaescortskingofprussiaa
p171
aVcurvybrstronglocationsstrongahrefcarsonescortscarsona
p172
aVcurvybrstronglocationsstrongahrefelmsfordescortselmsfordaahreftarrytownescortstarrytownaahreftuckahoeescortstuckahoeaahrefwhiteplainsnyescortswhiteplainsaahrefyonkersnyescortsyonkersa
p173
aVheavy
p174
aVcurvybrstronglocationsstrongahrefcatonsvilleescortscatonsvilleaahrefcolumbiaescortscolumbiaaahrefelkridgeescortselkridgea
p175
aVslenderbrstronglocationsstrongahrefchandlerescortschandleraahrefglendaleazescortsglendaleaahrefparadisevalleyescortsparadisevalleyaahrefscottsdaleescortsscottsdalea
p176
aVcurvybrstronglocationsstrongahrefbriceescortsbriceaahrefcanalwinchesterescortscanalwinchesteraahrefdublinohescortsdublinaahrefgallowayescortsgallowayaahrefgrovecityescortsgrovecityaahrefhilliardescortshilliardaahrefreynoldsburgescortsreynoldsburga
p177
aVathleticbrstronglocationsstrongahrefdesplainesescortsdesplainesaahrefoakbrookescortsoakbrookaahrefwestmontescortswestmonta
p178
aVcurvybrstronglocationsstrongahrefconcordescortsconcorda
p179
aVcurvybrstronglocationsstrongahrefwarrenohescortswarrena
p180
aVcurvybrstronglocationsstrongahrefbellgardensescortsbellgardensaahrefsouthgateescortssouthgateaahrefwhittierescortswhittiera
p181
aVtinybrstronglocationsstrongahrefanaheimescortsanaheimaahrefbuenaparkescortsbuenaparkaahreffullertonescortsfullertonaahrefgardengroveescortsgardengroveaahreforangeescortsorangeaahrefsantaanaescortssantaanaa
p182
aVathleticbrstronglocationsstrongahrefmishawakaescortsmishawakaa
p183
aVtinybrstronglocationsstrongahrefaltamontespringsescortsaltamontespringsaahrefkissimmeeescortskissimmeeaahreflakemaryescortslakemaryaahrefmaitlandescortsmaitlandaahrefwindermereescortswindermereaahrefwintergardenescortswintergardenaahrefwinterparkescortswinterparkaahrefwinterspringsescortswinterspringsa
p184
aVathleticbrstronglocationsstrongahrefsilverspringescortssilverspringa
p185
aVslenderbrstronglocationsstrongahrefaltamontespringsescortsaltamontespringsaahrefkissimmeeescortskissimmeeaahreflakemaryescortslakemaryaahrefmaitlandescortsmaitlandaahrefwintergardenescortswintergardenaahrefwinterparkescortswinterparkaahrefwinterspringsescortswinterspringsa
p186
aVcurvybrstronglocationsstrongahrefclovisescortsclovisaahrefmaderaescortsmaderaaahrefselmaescortsselmaa
p187
aVslenderbrstronglocationsstrongahrefsecaucusescortssecaucusa
p188
aVcurvybrstronglocationsstrongahrefpoolerescortspoolera
p189
aVslenderbrstronglocationsstrongahreffolsomescortsfolsomaahrefrosevilleescortsrosevillea
p190
aVathleticbrstronglocationsstrongahrefwestminsterescortswestminstera
p191
aVslenderbrstronglocationsstrongahrefbriceescortsbriceaahrefgrovecityescortsgrovecityaahrefhilliardescortshilliarda
p192
aVslenderbrstronglocationsstrongahrefanaheimescortsanaheima
p193
aVslenderbrstronglocationsstrongahrefallstonescortsallstonaahrefarlingtonmaescortsarlingtonaahrefavonmaescortsavonaahrefbeverlyescortsbeverlyaahrefbillericaescortsbillericaaahrefbraintreeescortsbraintreeaahrefbrightonmaescortsbrightonaahrefbrocktonescortsbrocktonaahrefbrooklineescortsbrooklineaahrefburlingtonescortsburlingtonaahrefcambridgemaescortscambridgeaahrefcantonmaescortscantonaahrefcharlestownescortscharlestownaahrefchelseaescortschelseaaahrefdanversescortsdanversaahrefdedhamescortsdedhamaahrefdorchesterescortsdorchesteraahrefdoverescortsdoveraahrefeastbostonescortseastbostonaahrefeverettescortseverettaahrefframinghamescortsframinghamaahrefhinghamescortshinghamaahrefhydeparkescortshydeparkaahreflynnescortslynnaahreflynnfieldescortslynnfieldaahrefmaldenescortsmaldenaahrefmedfordescortsmedfordaahrefmelroseescortsmelroseaahrefmiddletonmaescortsmiddletonaahrefmiltonescortsmiltonaahrefnatickescortsnatickaahrefneedhamescortsneedhamaahrefnewtonescortsnewtonaahrefnorwoodescortsnorwoodaahrefpeabodyescortspeabodyaahrefquincyescortsquincyaahrefrandolphescortsrandolphaahrefreadingmaescortsreadingaahrefrevereescortsrevereaahrefroxburyescortsroxburyaahrefsalemescortssalemaahrefsaugusescortssaugusaahrefsomervilleescortssomervilleaahrefsouthbostonescortssouthbostonaahrefstoughtonescortsstoughtonaahrefswampscottescortsswampscottaahreftewksburyescortstewksburyaahrefwakefieldescortswakefieldaahrefwalthamescortswalthamaahrefwatertownmaescortswatertownaahrefwellesleyescortswellesleyaahrefweymouthescortsweymouthaahrefwinthropescortswinthropaahrefwoburnescortswoburna
p194
aVaveragebrstronglocationsstrongahrefbellevillenjescortsbellevilleaahrefbloomfieldescortsbloomfieldaahrefcliftonescortscliftonaahrefdumontescortsdumontaahrefelizabethescortselizabethaahrefjerseycityescortsjerseycityaahrefnewarkescortsnewarkaahrefunionescortsunionaahrefunioncitynjescortsunioncityaahrefwestnewyorkescortswestnewyorka
p195
aVcurvybrstronglocationsstrongahrefscottsdaleescortsscottsdalea
p196
aVcurvybrstronglocationsstrongahrefcliftonparkescortscliftonparkaahrefcohoesescortscohoesaahrefguilderlandescortsguilderlandaahreflathamescortslathamaahrefschenectadyescortsschenectadyaahreftroynyescortstroya
p197
aVathleticbrstronglocationsstrongahrefalhambraescortsalhambraaahrefglendalecaescortsglendaleaahrefhawthorneescortshawthorneaahreflawndaleescortslawndaleaahrefpasadenaescortspasadenaaahrefsantamonicaescortssantamonicaa
p198
aVcurvybrstronglocationsstrongahrefgeorgetownescortsgeorgetownaahrefnicholasvilleescortsnicholasvillea
p199
aVslenderbrstronglocationsstrongahrefsunnyvaleescortssunnyvalea
p200
aVcushionforpushin
p201
aVathleticbrstronglocationsstrongahrefcampbellescortscampbellaahrefcupertinoescortscupertinoaahreffremontescortsfremontaahrefmilpitasescortsmilpitasaahrefmorganhillescortsmorganhillaahrefmountainviewescortsmountainviewaahrefnewarkcaescortsnewarkaahrefpaloaltoescortspaloaltoaahrefsantaclaraescortssantaclaraaahrefsunnyvaleescortssunnyvalea
p202
aVcurvybrstronglocationsstrongahrefalamedaescortsalamedaaahrefalbanycaescortsalbanyaahrefberkeleyescortsberkeleyaahrefcastrovalleyescortscastrovalleyaahrefelcerritoescortselcerritoaahrefelsobranteescortselsobranteaahrefemeryvillecaescortsemeryvilleaahrefhaywardescortshaywardaahrefherculesescortsherculesaahreflafayettecaescortslafayetteaahrefmartinezescortsmartinezaahrefmoragaescortsmoragaaahrefpiedmontescortspiedmontaahrefpinoleescortspinoleaahrefpleasanthillescortspleasanthillaahrefrichmondcaescortsrichmondaahrefsanleandrocaescortssanleandroaahrefsanlorenzoescortssanlorenzoaahrefsanpabloescortssanpabloaahrefsanramonescortssanramonaahrefunioncityescortsunioncityaahrefwalnutcreekescortswalnutcreeka
p203
aVtinybrstronglocationsstrongahrefburbankescortsburbankaahrefcanogaparkescortscanogaparkaahrefchatsworthescortschatsworthaahrefnorthhollywoodescortsnorthhollywoodaahrefnorthridgeescortsnorthridgeaahrefsanfernandoescortssanfernandoaahrefsylmarescortssylmaraahreftopangaescortstopangaaahrefuniversalcityescortsuniversalcityaahrefvannuysescortsvannuysaahrefwinnetkaescortswinnetkaa
p204
aVathleticbrstronglocationsstrongahrefbakerescortsbakeraahrefdenhamspringsescortsdenhamspringsaahrefgonzalesescortsgonzalesaahrefzacharyescortszacharya
p205
aVathleticbrstronglocationsstrongahrefantelopeescortsantelopeaahrefcarmichaelescortscarmichaelaahrefcitrusheightsescortscitrusheightsaahrefdavisescortsdavisaahrefelkgroveescortselkgroveaahreffairoaksescortsfairoaksaahrefnorthhighlandsescortsnorthhighlandsaahrefrosevilleescortsrosevillea
p206
aVslenderbrstronglocationsstrongahrefvannuyscaescortsvannuysa
p207
aVslender
p208
aVcurvybrstronglocationsstrongahreflewisvilleescortslewisvillea
p209
aVcurvybrstronglocationsstrongahrefcarrolltonescortscarrolltonaahrefmesquiteescortsmesquiteaahrefplanoescortsplanoaahrefrichardsonescortsrichardsona
p210
aVcurvybrstronglocationsstrongahrefnationalcityescortsnationalcitya
p211
aVcurvybrstronglocationsstrongahrefcedarparkescortscedarparkaahrefkyleescortskyleaahrefpflugervilleescortspflugervillea
p212
aVathleticbrstronglocationsstrongahrefindependenceohescortsindependencea
p213
aVslenderbrstronglocationsstrongahrefcatonsvilleescortscatonsvillea
p214
aVcurvybrstronglocationsstrongahrefelkgroveescortselkgroveaahrefnorthhighlandsescortsnorthhighlandsa
p215
aVslenderbrstronglocationsstrongahrefaltamontespringsescortsaltamontespringsaahrefapopkaescortsapopkaaahrefcasselberryescortscasselberryaahrefkissimmeeescortskissimmeeaahreflakemaryescortslakemaryaahreflongwoodescortslongwoodaahrefmaitlandescortsmaitlandaahrefoviedoescortsoviedoaahrefsanfordescortssanfordaahrefwindermereescortswindermereaahrefwinterparkescortswinterparka
p216
aVathleticbrstronglocationsstrongahrefarvadaescortsarvadaaahrefauroraescortsauroraaahrefbrightoncoescortsbrightonaahrefcommercecityescortscommercecityaahrefenglewoodcoescortsenglewoodaahrefgoldenescortsgoldenaahreflittletonescortslittletonaahreflonetreeescortslonetreeaahrefthorntonescortsthorntonaahrefwestminsterescortswestminstera
p217
aVslenderbrstronglocationsstrongahrefbossiercityescortsbossiercitya
p218
aVathleticbrstronglocationsstrongahrefcoralgablesescortscoralgablesaahrefhialeahescortshialeahaahrefhomesteadescortshomesteadaahrefmiamibeachescortsmiamibeachaahrefmiamigardensescortsmiamigardensaahrefnorthmiamibeachescortsnorthmiamibeacha
p219
aVslenderbrstronglocationsstrongahrefcitrusheightsescortscitrusheightsaahrefelkgroveescortselkgrovea
p220
aVaveragebrstronglocationsstrongahrefjamaicaescortsjamaicaaahrefqueensvillageescortsqueensvillagea
p221
aVaveragebrstronglocationsstrongahrefalamedaescortsalamedaaahrefalbanycaescortsalbanyaahrefberkeleyescortsberkeleyaahrefcastrovalleyescortscastrovalleyaahrefconcordescortsconcordaahrefelcerritoescortselcerritoaahrefhaywardescortshaywardaahrefmartinezescortsmartinezaahrefpinoleescortspinoleaahrefpleasanthillescortspleasanthillaahrefrichmondcaescortsrichmondaahrefsanleandrocaescortssanleandroaahrefsanpabloescortssanpabloaahrefsanramonescortssanramonaahrefunioncityescortsunioncityaahrefvallejoescortsvallejoaahrefwalnutcreekescortswalnutcreeka
p222
aVaveragebrstronglocationsstrongahrefbellevueescortsbellevueaahrefrentonescortsrentona
p223
aVaveragebrstronglocationsstrongahrefaddisonescortsaddisonaahrefarlingtontxescortsarlingtonaahrefgarlandescortsgarlandaahrefirvingescortsirvingaahrefrichardsonescortsrichardsonaahrefrockwallescortsrockwalla
p224
aVcurvybrstronglocationsstrongahrefmillbrookescortsmillbrookaahrefprattvilleescortsprattvillea
p225
aVslenderbrstronglocationsstrongahrefchannelviewescortschannelviewaahrefnorthhoustonescortsnorthhoustona
p226
aVslenderbrstronglocationsstrongahrefindependenceohescortsindependencea
p227
aVathleticbrstronglocationsstrongahrefbraintreeescortsbraintreeaahrefbrightonmaescortsbrightonaahrefbrooklineescortsbrooklineaahrefburlingtonescortsburlingtonaahrefcambridgemaescortscambridgeaahrefcharlestownescortscharlestownaahrefchelseaescortschelseaaahrefdedhamescortsdedhamaahrefdorchesterescortsdorchesteraahrefeastbostonescortseastbostonaahrefeverettescortseverettaahreflynnescortslynnaahrefmaldenescortsmaldenaahrefmedfordescortsmedfordaahrefmelroseescortsmelroseaahrefmiltonescortsmiltonaahrefpeabodyescortspeabodyaahrefquincyescortsquincyaahrefreadingmaescortsreadingaahrefrevereescortsrevereaahrefroxburyescortsroxburyaahrefsalemescortssalemaahrefsaugusescortssaugusaahrefsomervilleescortssomervilleaahrefsouthbostonescortssouthbostonaahrefswampscottescortsswampscottaahrefwakefieldescortswakefieldaahrefwalthamescortswalthamaahrefwatertownmaescortswatertownaahrefwinthropescortswinthropa
p228
aVathleticbrstronglocationsstrongahrefglendaleazescortsglendaleaahrefscottsdaleescortsscottsdaleaahreftempeescortstempea
p229
aVathleticbrstronglocationsstrongahrefbensalemescortsbensalemaahrefcheltenhamescortscheltenhamaahrefchesterpaescortschesteraahrefdarbyescortsdarbyaahrefhorshamescortshorshamaahrefkingofprussiaescortskingofprussiaaahrefmediaescortsmediaaahrefnorristownescortsnorristownaahrefupperdarbyescortsupperdarbya
p230
aVslenderbrstronglocationsstrongahreflongislandcityescortslongislandcitya
p231
aVslenderbrstronglocationsstrongahrefchannelviewescortschannelviewaahreffriendswoodescortsfriendswoodaahrefhumbleescortshumbleaahrefkingwoodescortskingwoodaahreflaporteescortslaporteaahrefnorthhoustonescortsnorthhoustonaahrefpasadenatxescortspasadenaaahrefpearlandescortspearlandaahrefsouthhoustonescortssouthhoustonaahrefstaffordescortsstaffordaahrefsugarlandescortssugarlandaahrefwebstertxescortswebstera
p232
aVbbwbrstronglocationsstrongahrefaddisonescortsaddisona
p233
aVcurvybrstronglocationsstrongahrefaddisonescortsaddisonaahrefrichardsonescortsrichardsona
p234
aVaveragebrstronglocationsstrongahrefkingofprussiaescortskingofprussiaa
p235
aVslenderbrstronglocationsstrongahrefbonitaspringsescortsbonitaspringsaahrefcapecoralescortscapecoralaahrefesteroescortsesteroa
p236
aVaveragebrstronglocationsstrongahrefbellairetxescortsbellaireaahrefchannelviewescortschannelviewaahreffriendswoodescortsfriendswoodaahrefgalenaparkescortsgalenaparkaahrefhighlandsescortshighlandsaahrefhumbleescortshumbleaahrefkingwoodescortskingwoodaahreflaporteescortslaporteaahrefnorthhoustonescortsnorthhoustonaahrefpasadenatxescortspasadenaaahrefpearlandescortspearlandaahrefsouthhoustonescortssouthhoustonaahrefstaffordescortsstaffordaahrefsugarlandescortssugarlandaahrefwebstertxescortswebstera
p237
aVslenderbrstronglocationsstrongahrefnorthhoustonescortsnorthhoustona
p238
aVathleticbrstronglocationsstrongahrefconwayescortsconwayaahreflittleriverescortslittleriveraahrefnorthmyrtlebeachescortsnorthmyrtlebeacha
p239
aVcurvybrstronglocationsstrongahrefsanfernandoescortssanfernandoaahrefvannuysescortsvannuysaahrefwoodlandhillsescortswoodlandhillsa
p240
aVtinybrstronglocationsstrongahrefanaheimescortsanaheimaahrefbuenaparkescortsbuenaparkaahrefcostamesaescortscostamesaaahrefirvineescortsirvineaahrefsantaanaescortssantaanaa
p241
aVcurvybrstronglocationsstrongahrefbedfordescortsbedfordaahrefeulessescortseulessaahrefhurstescortshurstaahrefnorthrichlandhillsescortsnorthrichlandhillsa
p242
aVbbwbrstronglocationsstrongahrefalhambraescortsalhambraaahrefartesiaescortsartesiaaahrefbellescortsbellaahrefbellgardensescortsbellgardensaahrefbeverlyhillsescortsbeverlyhillsaahrefcarsonescortscarsonaahrefculvercityescortsculvercityaahrefelmonteescortselmonteaahrefelsegundoescortselsegundoaahrefgardenaescortsgardenaaahrefglendalecaescortsglendaleaahrefhawthorneescortshawthorneaahrefinglewoodescortsinglewoodaahreflawndaleescortslawndaleaahreflomitaescortslomitaaahrefmanhattanbeachescortsmanhattanbeachaahrefmarinadelreyescortsmarinadelreyaahrefmontebelloescortsmontebelloaahrefnorthhollywoodcaescortsnorthhollywoodaahrefpasadenaescortspasadenaaahrefredondobeachescortsredondobeachaahrefrosemeadescortsrosemeadaahrefsantamonicaescortssantamonicaaahrefshermanoakscaescortsshermanoaksaahrefsouthgateescortssouthgateaahrefstudiocitycaescortsstudiocityaahreftorranceescortstorranceaahrefvannuyscaescortsvannuysaahrefveniceescortsveniceaahrefwesthollywoodescortswesthollywoodaahrefwhittierescortswhittiera
p243
aVathleticbrstronglocationsstrongahrefnormalescortsnormala
p244
aVaveragebrstronglocationsstrongahrefaddisonescortsaddisonaahrefallenescortsallenaahrefcarrolltonescortscarrolltonaahrefduncanvilleescortsduncanvilleaahrefmesquiteescortsmesquiteaahrefplanoescortsplanoaahrefrichardsonescortsrichardsonaahrefrockwallescortsrockwalla
p245
aVslenderbrstronglocationsstrongahrefbrisbaneescortsbrisbaneaahrefburlingameescortsburlingameaahrefdalycityescortsdalycityaahrefmillbraeescortsmillbraeaahrefredwoodcityescortsredwoodcityaahrefsanmateoescortssanmateoaahrefsouthsanfranciscoescortssouthsanfranciscoa
p246
aVslenderbrstronglocationsstrongahrefdinubaescortsdinubaaahrefhanfordescortshanfordaahreftulareescortstulareaahrefvisaliaescortsvisaliaa
p247
aVbbwbrstronglocationsstrongahrefschenectadyescortsschenectadyaahreftroynyescortstroya
p248
aVaveragebrstronglocationsstrongahrefcarmichaelescortscarmichaelaahrefdavisescortsdavisaahrefelkgroveescortselkgroveaahreffolsomescortsfolsomaahreforangevaleescortsorangevaleaahrefrosevilleescortsrosevilleaahrefwestsacramentoescortswestsacramentoaahrefwoodlandescortswoodlanda
p249
aVslenderbrstronglocationsstrongahrefsouthfieldescortssouthfielda
p250
aVslenderbrstronglocationsstrongahrefsaintpaulescortssaintpaula
p251
aVslenderbrstronglocationsstrongahrefcostamesaescortscostamesaa
p252
aVbbwbrstronglocationsstrongahreffullertonescortsfullertona
p253
aVathleticbrstronglocationsstrongahrefaddisonescortsaddisona
p254
aVathleticbrstronglocationsstrongahrefmariettaescortsmariettaa
p255
aVathleticbrstronglocationsstrongahrefbayonneescortsbayonneaahrefbloomfieldescortsbloomfieldaahrefcliffsideparkescortscliffsideparkaahrefdumontescortsdumontaahrefeasthanoverescortseasthanoveraahrefelizabethescortselizabethaahrefenglewoodescortsenglewoodaahrefgarfieldescortsgarfieldaahrefjerseycityescortsjerseycityaahreflittleferryescortslittleferryaahreflyndhurstescortslyndhurstaahrefmontclairescortsmontclairaahrefnewarkescortsnewarkaahrefnorthbergenescortsnorthbergenaahreforangenjescortsorangeaahrefpalisadesparkescortspalisadesparkaahreframseyescortsramseyaahrefridgefieldescortsridgefieldaahrefrochelleparkescortsrochelleparkaahrefsecaucusescortssecaucusaahrefsouthhackensackescortssouthhackensackaahrefteaneckescortsteaneckaahrefunionescortsunionaahrefunioncitynjescortsunioncityaahrefwestnewyorkescortswestnewyorkaahrefwestorangeescortswestorangea
p256
aVslenderbrstronglocationsstrongahrefpawtucketescortspawtucketa
p257
aVslenderbrstronglocationsstrongahrefbalacynwydescortsbalacynwydaahrefbensalemescortsbensalemaahrefessingtonescortsessingtonaahrefkingofprussiaescortskingofprussiaaahrefsharonhillescortssharonhillaahrefvalleyforgeescortsvalleyforgea
p258
aVcurvybrstronglocationsstrongahrefgulfportescortsgulfportaahrefoceanspringsescortsoceanspringsa
p259
aVathleticbrstronglocationsstrongahrefbluediamondescortsbluediamonda
p260
aVslenderbrstronglocationsstrongahrefcovingtonescortscovingtonaahrefflorencekyescortsflorenceaahrefmasonescortsmasona
p261
aVathleticbrstronglocationsstrongahrefbeavertonescortsbeavertonaahrefhillsboroescortshillsboroaahreflakeoswegoescortslakeoswegoaahreftualatinescortstualatina
p262
aVathleticbrstronglocationsstrongahrefbonitaescortsbonitaaahrefchulavistaescortschulavistaaahrefdelmarescortsdelmaraahrefelcajonescortselcajonaahreflajollaescortslajollaaahreflamesaescortslamesaaahrefnationalcityescortsnationalcityaahrefpowayescortspowaya
p263
aVathleticbrstronglocationsstrongahrefbeverlyhillsescortsbeverlyhillsaahrefculvercityescortsculvercityaahrefmarinadelreyescortsmarinadelreyaahrefsantamonicaescortssantamonicaaahrefshermanoakscaescortsshermanoaksaahrefveniceescortsveniceaahrefwesthollywoodescortswesthollywooda
p264
aVtinybrstronglocationsstrongahrefsanfernandoescortssanfernandoaahrefsylmarescortssylmara
p265
aVaveragebrstronglocationsstrongahrefamblerescortsambleraahrefbalacynwydescortsbalacynwydaahrefbensalemescortsbensalemaahrefcheltenhamescortscheltenhamaahrefchesterpaescortschesteraahrefconshohockenescortsconshohockenaahrefdarbyescortsdarbyaahrefessingtonescortsessingtonaahreffortwashingtonescortsfortwashingtonaahrefhorshamescortshorshamaahrefkingofprussiaescortskingofprussiaaahreflansdowneescortslansdowneaahrefmediaescortsmediaaahrefmortonescortsmortonaahrefnorristownescortsnorristownaahrefplymouthmeetingescortsplymouthmeetingaahrefsharonhillescortssharonhillaahrefspringfieldpaescortsspringfieldaahrefupperdarbyescortsupperdarbyaahrefvalleyforgeescortsvalleyforgeaahrefwillowgroveescortswillowgrovea
p266
aVtinybrstronglocationsstrongahrefbonitaescortsbonitaaahrefcoronadoescortscoronadoaahrefdelmarescortsdelmaraahrefelcajonescortselcajonaahreflajollaescortslajollaaahreflamesaescortslamesaaahrefpowayescortspowayaahrefsolanabeachescortssolanabeachaahrefspringvalleycaescortsspringvalleya
p267
aVcurvybrstronglocationsstrongahrefcamarilloescortscamarilloaahrefoxnardescortsoxnardaahrefventuraescortsventuraa
p268
aVaveragebrstronglocationsstrongahrefmeridianescortsmeridiana
p269
aVtinybrstronglocationsstrongahrefalexandriaescortsalexandriaaahreffairfaxescortsfairfaxaahrefsilverspringescortssilverspringaahreftakomaparkescortstakomaparkaahrefwashingtonescortswashingtona
p270
aVslenderbrstronglocationsstrongahrefbradentonescortsbradentonaahrefpalmettoescortspalmettoaahrefsarasotaescortssarasotaa
p271
aVcurvybrstronglocationsstrongahrefaltamontespringsescortsaltamontespringsa
p272
aVaveragebrstronglocationsstrongahrefciceronyescortsciceroa
p273
aVaveragebrstronglocationsstrongahrefbrisbaneescortsbrisbaneaahrefburlingameescortsburlingameaahrefdalycityescortsdalycityaahrefemeryvilleescortsemeryvilleaahrefhaywardcaescortshaywardaahrefmillvalleyescortsmillvalleyaahrefmillbraeescortsmillbraeaahrefpacificaescortspacificaaahrefredwoodcityescortsredwoodcityaahrefrichmondcaescortsrichmondaahrefsanbrunoescortssanbrunoaahrefsanleandroescortssanleandroaahrefsanmateoescortssanmateoaahrefsanrafaelescortssanrafaelaahrefsouthsanfranciscoescortssouthsanfranciscoa
p274
aVcurvybrstronglocationsstrongahrefhaysvilleescortshaysvilleaahrefmulvaneescortsmulvanea
p275
aVaveragebrstronglocationsstrongahreffairfaxescortsfairfaxa
p276
aVslenderbrstronglocationsstrongahrefaddisonescortsaddisonaahrefallenescortsallenaahrefarlingtontxescortsarlingtonaahrefcarrolltonescortscarrolltonaahrefcoppellescortscoppellaahrefdesotoescortsdesotoaahrefduncanvilleescortsduncanvilleaahrefforneyescortsforneyaahrefgarlandescortsgarlandaahrefirvingescortsirvingaahreflancasterescortslancasteraahrefmesquiteescortsmesquiteaahrefplanoescortsplanoaahrefrichardsonescortsrichardsonaahrefrockwallescortsrockwallaahrefseagovilleescortsseagovillea
p277
aVtinybrstronglocationsstrongahrefscottsdaleescortsscottsdalea
p278
aVcurvybrstronglocationsstrongahrefwashingtonescortswashingtona
p279
aVslenderbrstronglocationsstrongahrefauroraescortsauroraa
p280
aVslenderbrstronglocationsstrongahrefbluediamondescortsbluediamondaahrefhendersonnvescortshendersonaahrefnorthlasvegasescortsnorthlasvegasa
p281
aVcurvybrstronglocationsstrongahrefmiamibeachescortsmiamibeacha
p282
aVcurvybrstronglocationsstrongahrefarvadaescortsarvadaaahrefauroraescortsauroraaahrefbrightoncoescortsbrightonaahrefcommercecityescortscommercecityaahrefenglewoodcoescortsenglewoodaahrefgoldenescortsgoldenaahreflittletonescortslittletonaahreflonetreeescortslonetreeaahrefthorntonescortsthorntonaahrefwestminsterescortswestminstera
p283
aVcurvybrstronglocationsstrongahrefbixbyescortsbixbyaahrefowassoescortsowassoa
p284
aVhwp
p285
aVaveragebrstronglocationsstrongahrefmilpitasescortsmilpitasa
p286
aVslenderbrstronglocationsstrongahrefhendersonnvescortshendersona
p287
aVslenderbrstronglocationsstrongahrefhendersonescortshendersonaahrefnewburghinescortsnewburgha
p288
aVtinybrstronglocationsstrongahrefbluediamondescortsbluediamondaahrefhendersonnvescortshendersona
p289
aVcurvybrstronglocationsstrongahrefalexandriaescortsalexandriaaahrefandrewsairforcebaescortsandrewsairforcebaseaahrefarlingtonvaescortsarlingtonaahrefashtonescortsashtonaahrefbeltsvilleescortsbeltsvilleaahrefbethesdaescortsbethesdaaahrefbladensburgescortsbladensburgaahrefbowiemdescortsbowieaahrefcapitolheightsescortscapitolheightsaahrefclintonescortsclintonaahrefcollegeparkescortscollegeparkaahrefdistrictheightsescortsdistrictheightsaahreffairfaxescortsfairfaxaahreffallschurchescortsfallschurchaahrefgaithersburgescortsgaithersburgaahrefgreenbeltescortsgreenbeltaahrefhyattsvilleescortshyattsvilleaahreflanhamescortslanhamaahreflaurelescortslaurelaahrefoxonhillescortsoxonhillaahrefpotomacescortspotomacaahrefrockvilleescortsrockvilleaahrefsilverspringescortssilverspringaahrefspringfieldvaescortsspringfieldaahrefsuitlandescortssuitlandaahreftakomaparkescortstakomaparkaahreftemplehillsescortstemplehillsaahrefuppermarlboroescortsuppermarlboroaahrefwaldorfescortswaldorfaahrefwashingtonescortswashingtonaahrefwoodbridgevaescortswoodbridgea
p290
aVaverage
p291
aVathleticbrstronglocationsstrongahrefandrewsairforcebaescortsandrewsairforcebaseaahrefarlingtonvaescortsarlingtonaahrefcapitolheightsescortscapitolheightsaahrefdistrictheightsescortsdistrictheightsaahrefwashingtonescortswashingtona
p292
aVslenderbrstronglocationsstrongahrefcampbellescortscampbellaahrefcupertinoescortscupertinoaahreffremontescortsfremontaahreflosgatosescortslosgatosaahrefmilpitasescortsmilpitasaahrefmountainviewescortsmountainviewaahrefnewarkcaescortsnewarkaahrefsantaclaraescortssantaclaraaahrefsunnyvaleescortssunnyvalea
p293
aVcurvy
p294
aVslenderbrstronglocationsstrongahrefarlingtontxescortsarlingtona
p295
aVskinny
p296
aVcurvybrstronglocationsstrongahrefsarasotaescortssarasotaa
p297
aVslenderbrstronglocationsstrongahrefbluediamondescortsbluediamondaahrefhendersonnvescortshendersona
p298
atp299
Rp300
sVperson_haircolor_feature
p301
g2
((lp302
Vbeautiful red hair and full lips
p303
aVblack medium length
p304
aVdark brownred highlights
p305
aVlong dark
p306
aVblack long hair
p307
aVnone
p308
aVbrunnette
p309
aVpixie cut
p310
aVburgundy
p311
aVdark browm
p312
aVdark brown
p313
aVdeep red
p314
aVlight brownblonde
p315
aVgraywhite
p316
aVred natural
p317
aVbush
p318
aVblack
p319
aVpink and black
p320
aVlong curly blonde hair
p321
aVbrown
p322
aVblonde w blonde streaks
p323
aVmostly dark brown
p324
aVmy own still
p325
aVlargue
p326
aVred curly long
p327
aVu better know what a razor is
p328
aVblondegolden
p329
aVlong light brown
p330
aVwavy
p331
aVever changing
p332
aVred long
p333
aVblack wgrey
p334
aVlong and light brown
p335
aVdirty blonde past shoulders
p336
aVround booty
p337
aVlonger now than in the pics
p338
aVblacklongwavy
p339
aVredbrown
p340
aVlarge
p341
aVbrunette lt
p342
aVlong silky straigh
p343
aVauburnred
p344
aVlong with highlights
p345
aVlong reddish brown
p346
aVlong amp brown
p347
aVred n black
p348
aVblue
p349
aVi wear my natural curly hair
p350
aVlong bright red hair
p351
aVshaved
p352
aVdyed blondelongish
p353
aVbrown medium length
p354
aVred curls
p355
aVred with blonde highlights
p356
aVcurly brown
p357
aVnatural rarely shave
p358
aVsleek an sexy strawberry blondj
p359
aVblack and red
p360
aVlong straight blonde hair
p361
aVlong ring let spiral curls
p362
aVblonde with reddish hue
p363
aVand long black hair
p364
aVlong curly or straight
p365
aVredauburn
p366
aVdarkbrown hair
p367
aVnatural redhead
p368
aVvery short pixie and brown
p369
aVshaved pussy
p370
aVbrown with blonde highlights
p371
aVblack short
p372
aVredish brown
p373
aVredblond
p374
aVblondish
p375
aVlong blond with touch of red
p376
aVlong brown red
p377
aVmedium brown red and blonde highlig
p378
aVlong blonde brunette
p379
aVlong and black
p380
aVgolden
p381
aVbrownblonde
p382
aVlong dark brown
p383
aVlongblack
p384
aVark brown brunette
p385
aVblonde shoulder lenghth
p386
aVlong dark curly
p387
aVbare down there
p388
aVsexy black
p389
aVnewly cherry brunette
p390
aVblonde
p391
aVno hair
p392
aVthickblack
p393
aVlong and silky
p394
aVplatinum
p395
aVcolor changes frequently
p396
aVshort black hair
p397
aVdark brown amp short
p398
aVmust have dreads
p399
aVred head
p400
aVdark blonde
p401
aVblonde i wear wigs sometimes too
p402
aVlong and dirty blonde
p403
aVbrown highlights
p404
aVchestnut
p405
aVlong and blonde
p406
aVnice brown hair
p407
aVblonde and red
p408
aVhot hot pink
p409
aVwaxed
p410
aVblack blonde
p411
aVshort black very shiny
p412
aVredhead
p413
aVvery long luxurious ash blonde
p414
aVdk brown
p415
aVlong amp dark
p416
aVdrapes longcarpet smooth
p417
aVsandy blonde
p418
aVblondsometimes
p419
aVlong brown and curly
p420
aVlong redish blonde
p421
aVdark brown short
p422
aVbright redblack
p423
aVlong blonde amp curly
p424
aVshort and dark
p425
aVvery long straight black hair
p426
aVlong dark red hairdyed
p427
aVmedium long brown auburn
p428
aVdyed red
p429
aVbeautiful
p430
aVstrawberry blonde bronze
p431
aVplatinum blonde
p432
aVstrawberry blonde
p433
aVlocs
p434
aVlong black hair
p435
aVcurly blck
p436
aVdark auburn
p437
aVvery dark brown dyed
p438
aVcurl
p439
aVlong straight brown hair
p440
aVdreads
p441
aVblack midback
p442
aVnegro largo
p443
aVbraids
p444
aVburgandy
p445
aVsoft white skin long legs with a bubble
p446
aVmed reddish brown
p447
aVclean shaven
p448
aVblonde amp brown
p449
aVnatural red head
p450
aVlight blond
p451
aVcurly and short
p452
aVlong strawberry blonde
p453
aVshort
p454
aVto my waist
p455
aVto my ass
p456
aVred hair
p457
aVbrown long
p458
aVlong amp black
p459
aVlong ponytail
p460
aVlongish
p461
aVauburn
p462
aVburgundy red
p463
aVbrnlong blonde short
p464
aVyes
p465
aVblondeish brown
p466
aVreddish brown
p467
aVlong brown hair
p468
aVlong straightbrunette
p469
aVblonde and brown
p470
aVcurly
p471
aVrubio
p472
aVmed length black
p473
aVlong dirty blonde
p474
aVlong and sexy
p475
aVlongdark brown
p476
aVlong red
p477
aVchanges often hairstyle is my job
p478
aVred shoulder length
p479
aVraven
p480
aVdirty blonde
p481
aVbrown and wavy
p482
aVstrawberry blondred
p483
aVbrownblue dreads
p484
aVlong espresso brown
p485
aVlong straight blonde colored
p486
aVblack waist length
p487
aVdark
p488
aVblack long
p489
aVshort n red
p490
aVbrown dyed red
p491
aVbrownblack
p492
aVtrimmed
p493
aVredddd
p494
aVbrunette
p495
aVlong natural dark brown
p496
aVlong brunette
p497
aVblond curly
p498
aVmulticolored
p499
aVlong dark hair
p500
aVcurly red brown
p501
aVred and long
p502
aVlong enough to pull on
p503
aVwaist long
p504
aVlight brown
p505
aVlight blonde
p506
aVblkblnde
p507
aVlong amp straight
p508
aVlong brn
p509
aVdark red
p510
aVauburn red
p511
aVextremelly long pas my ass
p512
aVvery long and red
p513
aVblk
p514
aVshort amp styled
p515
aVlong enough to pull gently
p516
aVred
p517
aVbrown long hair
p518
aVblondish natural wavey
p519
aVstrawberry blond medium long
p520
aVsilky long
p521
aVlong reddish blonde
p522
aVshort curly red
p523
aVlong black
p524
aVblonde shoulder length
p525
aVlong ash blonde
p526
aVshort red
p527
aVlong curly blonde
p528
aVlong curly dark
p529
aVbeach blonde
p530
aVdark shoulder length
p531
aVlong blonde
p532
aVbrown hair
p533
aVdark black
p534
aVfirey red hair
p535
aVblonde with slight reddish tint
p536
aVlongreddish brown
p537
aVmassive
p538
aVlong n auburn brown
p539
aVshort dark brown
p540
aVsholder length
p541
aVlong curly brown hair
p542
aVblonde bombshell
p543
aVvery long black
p544
aVcastao
p545
aVdark brunettesoft black
p546
aVshort blonde
p547
aVdirty brown
p548
aVlong
p549
aVshaved clean
p550
aVvery long
p551
aVdrk brown
p552
aVshort and black
p553
aVblack dyed red
p554
aVbrunette long
p555
aVbrunette with blonde highlights
p556
aVlong blackbrown
p557
aVlong hair
p558
aVshortbrown
p559
aVlong amp black with a white streak
p560
aVnegro
p561
aVlong pretty pullable
p562
aVblonde hair
p563
aVblonde brown
p564
aVreddish blonde
p565
aVlong curly
p566
aVwhite
p567
aVmulticoloured neon dyed
p568
aVlong blond
p569
aVlong curly honey brown
p570
aVlong and brown
p571
aVa true redhead
p572
aVshort bright red
p573
aVgrey
p574
aVshort and sasy
p575
aVshoulder length
p576
aVtones
p577
aVsort
p578
aVbrownbrown
p579
aVauburn and short
p580
aVlong strawberry
p581
aVblond
p582
aVlong brown
p583
aVlong thick redbrown hair
p584
aVlong blonde hair
p585
aVnatural dark brown
p586
aVbrown curly
p587
aVbrunette shoulder length
p588
aVlong wiv natural curl
p589
aVother
p590
aVnatural red
p591
aVpink custom lol
p592
aVlong curly brown
p593
aVhoneycomb
p594
aVall natural red
p595
aVmedium length
p596
aVblond long
p597
aVlong and dark
p598
aVstrawberryblonde
p599
aVlong silky dark brown
p600
aVshoulder length blonde
p601
aVplenty
p602
aVshort multicolored
p603
aVblack w blonde highlights
p604
aVcurly black
p605
aVginger medium
p606
aVlong dark brown with hilights
p607
aVlonger
p608
aVplatium short
p609
aVlight brown medium length
p610
aVmostly brown
p611
aVred and black
p612
aVblonde and all mine
p613
aVmed long
p614
aVnatural locks
p615
aVlong and natural
p616
atp617
Rp618
sVperson_age_feature
p619
g2
((lp620
I1
aI2
aI3
aI4
aI5
aI7
aI8
aI10
aI11
aI12
aI13
aI14
aI15
aI16
aI17
aI18
aI19
aI20
aI21
aI22
aI23
aI24
aI25
aI26
aI27
aI28
aI29
aI30
aI31
aI32
aI33
aI34
aV27
p621
aV20
p622
aI37
aV22
p623
aV23
p624
aI40
aI41
aI42
aI43
aV28
p625
aI45
aI46
aI47
aI48
aI49
aI50
aI51
aI52
aI53
aI54
aI55
aI56
aI57
aI58
aI59
aI60
aI61
aI62
aI63
aI64
aI65
aI66
aI67
aI68
aI69
aI70
aI71
aI72
aI73
aI74
aI75
aI76
aI77
aI78
aI79
aI80
aI81
aI82
aI83
aI84
aI85
aI86
aI87
aI88
aI89
aI90
aI91
aI92
aI93
aI94
aI95
aI96
aI97
aI98
aI99
aV59
p626
aV58
p627
aV55
p628
aV54
p629
aV57
p630
aV56
p631
aV51
p632
aV50
p633
aV53
p634
aV52
p635
aV88
p636
aV89
p637
aV82
p638
aV83
p639
aV80
p640
aV81
p641
aV86
p642
aV87
p643
aV84
p644
aV85
p645
aV3
p646
aV7
p647
aV24
p648
aV25
p649
aV26
p650
aI35
aI36
aV21
p651
aV39
p652
aV38
p653
aI38
aV33
p654
aV32
p655
aV31
p656
aV30
p657
aV37
p658
aV36
p659
aV35
p660
aV34
p661
aI39
aI44
aV29
p662
aV60
p663
aV61
p664
aV62
p665
aV63
p666
aV64
p667
aV65
p668
aV66
p669
aV67
p670
aV68
p671
aV69
p672
aV2
p673
aV6
p674
aV4
p675
aV99
p676
aV98
p677
aV8
p678
aV91
p679
aV90
p680
aV93
p681
aV92
p682
aV95
p683
aV94
p684
aV97
p685
aV96
p686
aV11
p687
aV10
p688
aV13
p689
aV12
p690
aV15
p691
aV14
p692
aV17
p693
aV16
p694
aV19
p695
aV18
p696
aV48
p697
aV49
p698
aV46
p699
aV47
p700
aV44
p701
aV45
p702
aV42
p703
aV43
p704
aV40
p705
aV41
p706
aV1
p707
aV5
p708
aV9
p709
aV77
p710
aV76
p711
aV75
p712
aV74
p713
aV73
p714
aV72
p715
aV71
p716
aV70
p717
aV79
p718
aV78
p719
atp720
Rp721
sVperson_cupsizeus_feature
p722
g2
((lp723
Vaa
p724
aVflat
p725
aVjust
p726
aVcc
p727
aVdd
p728
aVgg
p729
aVggg
p730
aVff
p731
aVfff
p732
aVa
p733
aVc
p734
aVb
p735
aVaaa
p736
aVd
p737
aVg
p738
aVf
p739
aVbbb
p740
aVbb
p741
aVee
p742
aVeee
p743
aVe
p744
aVccc
p745
aVddd
p746
atp747
Rp748
sVperson_ethnicity_feature
p749
g2
((lp750
Vmiddle-easternother
p751
aVfilifina
p752
aVlatina,black,white
p753
aVblackonly
p754
aVchinese
p755
aVgerman
p756
aVpuertoricanndominican
p757
aVwhite/spanish
p758
aVall
p759
aVafricanamerican/middleeastern
p760
aVmiddleeastern
p761
aVwhiterthanshit
p762
aVwhiteasianlatinmiddle-easterneuropeanindianother
p763
aVasian
p764
aVmexican
p765
aVthai
p766
aVblackeuropeanindianother
p767
aVcaucasian/white
p768
aVitalian/irish
p769
aVblackamericans
p770
aVblacklatin
p771
aVwhitelatinindian
p772
aVwhiteblackindian
p773
aVromanian
p774
aVasianeuropean
p775
aVwhitemiddle-easterneuropeanindian
p776
aVblacklatinindian
p777
aVblack
p778
aVcaucazian
p779
aVusahollywood
p780
aVeuropeanindian
p781
aVbrown
p782
aVwhitebbw
p783
aVafricanamerican
p784
aVblacklatineuropeanother
p785
aVblk.opentoallraces
p786
aVwhiteblackeuropeanindian
p787
aVwhiteblacklatinindian
p788
aVblackmiddle-easternindian
p789
aVmixedrace
p790
aVhispanic/white
p791
aVwhitemiddle-easterneuropeanother
p792
aVwhite/nativeamerican
p793
aVwhiteblackindianother
p794
aVwhiteblackasianindian
p795
aVmiddle-easterneuropeanindian
p796
aVscandanavian
p797
aVasianindianother
p798
aVpurefilipina
p799
aVcaucasian
p800
aVhalf-thai
p801
aVeuropenne
p802
aVcountrywhitegirl
p803
aVsexypetiteeuropeantreat
p804
aVasian-black
p805
aVblacklatineuropean
p806
aVblackasianindianother
p807
aVlatinindianother
p808
aVmediterranean
p809
aVwhite/japanese
p810
aVcolombian/caucasian
p811
aVi'amamixedblackbrazilianandcr
p812
aVpolish
p813
aVmiddle-easternindianother
p814
aVwhite&amp;whiter!!
p815
aVwhitegoodlookingwhitewomen
p816
aV1/2italianrestbrazilian,columbian
p817
aVcaucasian...withsomesiouxindian!
p818
aVlatineuropean
p819
aVwhiteeuropeanindian
p820
aVindianother
p821
aVindian
p822
aVsmokinhotchocolate
p823
aVukrainian
p824
aVwhitemiddle-easterneuropeanindianother
p825
aVwhiteasianeuropean
p826
aVzimbabwean
p827
aVblackmiddle-easterneuropeanother
p828
aVcolombian
p829
aVwhiteblack
p830
aVlatin
p831
aVa.a
p832
aVgermandutchandfillipino
p833
aVwhite/italian
p834
aVmiddle-easterneuropean
p835
aVfrench
p836
aVwhiteblackmiddle-easternother
p837
aVlatinaandnative
p838
aVasianlatinmiddle-easternother
p839
aVwhiteandseekthesame
p840
aVitalianandportuguese
p841
aVmixedraces
p842
aVwhitelatinindianother
p843
aVasianmiddle-easternother
p844
aVwhiteindian
p845
aVblackamerican&amp;aussiemix
p846
aVwhiteblackasianother
p847
aVwhitemiddle-easternother
p848
aVwhiteasianlatinindian
p849
aVpinay
p850
aVwhiteblacklatinmiddle-easternindianother
p851
aVmixedsexy
p852
aVwhiteasian
p853
aVwhiteasianother
p854
aVblackasianmixed
p855
aVpanamanian
p856
aVmixedasian
p857
aVasianlatineuropean
p858
aVpuertoricanandcaucasian
p859
aVexoticmix
p860
aVasianindian
p861
aVblack/white
p862
aVmulatto
p863
aVsexy
p864
aVwhiteasianmiddle-easterneuropeanindian
p865
aVrican
p866
aVwhiteblackasianlatin
p867
aVspanishandwhite
p868
aVcaucasianyoumustbe2
p869
aVbeautifullybrowned!
p870
aVricanandcuban
p871
aVirishitalian
p872
aVwhiteblackmiddle-easternindian
p873
aVasianmiddle-eastern
p874
aVswf
p875
aVwhiteasianindian
p876
aVwhite/caucasian
p877
aVasiatique
p878
aVaustralian
p879
aVblackasianlatinindian
p880
aVwhiteasianlatineuropean
p881
aVblacklatinmiddle-eastern
p882
aVlatinmiddle-easternindian
p883
aVwhiteblackasianlatinmiddle-easterneuropeanindianother
p884
aVblackmiddle-easternindianother
p885
aVmalay
p886
aVafricanqueen
p887
aVblack-whitemix
p888
aVblackasianlatin
p889
aVwhitelatinmiddle-eastern
p890
aVafricanorigin
p891
aVsalvadoreanandwhite
p892
aVblackasianeuropeanother
p893
aVafrican-american
p894
aVblackeuropean
p895
aVirish/cherokee
p896
aVsexypititeeuropean
p897
aVblackother
p898
aVinterracial
p899
aVwhitelatinmiddle-easternother
p900
aVwhite,black,indianandirish
p901
aVwhiteblackasianlatinmiddle-easternindianother
p902
aVgermandutchfillipino
p903
aVlittledutchess
p904
aVwhitelady
p905
aVspanishblood
p906
aVkhmer
p907
aVtranslucentlywhite,lol!
p908
aVsexypititeeuropeantreat
p909
aVasianmiddle-easternindian
p910
aVnativeam.ital.latino.french
p911
aVwhiteeuropeanother
p912
aVwhiteblackasianlatineuropean
p913
aVtan
p914
aVwhiteasianeuropeanindian
p915
aVmulti-race
p916
aVlatinmiddle-easternindianother
p917
aVwhiteblackasianlatineuropeanindianother
p918
aVasianandluxury
p919
aVafricanamer
p920
aVblackasianmiddle-eastern
p921
aVwhiteblackasianlatinmiddle-easterneuropeanindian
p922
aVasianeuropeanindian
p923
aVhungarianfrenchnativecherokee
p924
aVgerman,irish,caucasion
p925
aVwhiteother
p926
aVwhiteblackasianlatinmiddle-easterneuropeanother
p927
aVwhiteblackother
p928
aVirish/indian
p929
aVfilpino,asian
p930
aVwhitenative
p931
aVsexxxylatina
p932
aVeuropeanindianother
p933
aVmixed
p934
aVwhitegirls
p935
aVwhiteblackasianlatineuropeanother
p936
aVasianlatin
p937
aVwhiteblacklatineuropeanindian
p938
aVblackmiddle-easterneuropeanindian
p939
aVeuro
p940
aVarab
p941
aVbubblingbrownsugar
p942
aVdarkandlovely
p943
aVbeautifulcreoleebony
p944
aVwhitecaucasian
p945
aVhisp/blk
p946
aVasian/white
p947
aVhispanicandirish
p948
aVwhiteblacklatineuropeanother
p949
aVafrican
p950
aVwhitewomen
p951
aVwhiteandverypale
p952
aVprettyblonde
p953
aVwdf
p954
aVmiddle-easterneuropeanother
p955
aVdominican
p956
aVblackmiddle-eastern
p957
aVbiracial
p958
aVwhiteasianlatineuropeanother
p959
aVdine
p960
aVwhiteasianindianother
p961
aVwest/indian
p962
aVblackfemale
p963
aVhispanic/latina/white
p964
aVmutt
p965
aVmilwaukee
p966
aVimsexychocolate
p967
aVhispanicandwhite
p968
aVswahili
p969
aVblackasianindian
p970
aVtejana
p971
aVhispanic/german
p972
aVjamaican/black
p973
aVfrench,indian,andwhite
p974
aVblacklatinmiddle-easternindian
p975
aVblackqueen
p976
aVfilipinanwhite
p977
aVhispanic/nativeamerican
p978
aVlatinmiddle-eastern
p979
aVindianwhitehispanic
p980
aVasianeuropeanindianother
p981
aVwhiteblackeuropeanother
p982
aVnativeamerican
p983
aVlatinindian
p984
aVwhitelatineuropeanother
p985
aVlatinother
p986
aVblackandcuban
p987
aVlatinmiddle-easterneuropeanindian
p988
aVtransparent
p989
aVwhiteblackasianeuropean
p990
aVwhiteasianlatinmiddle-easternindianother
p991
aVwhiteblacklatinindianother
p992
aVblackindian
p993
aVlatinmiddle-easterneuropeanother
p994
aVaussiepinay
p995
aVblkindiannpuertorican
p996
aVlatinamerican
p997
aVwhiteasianlatin
p998
aVeuropean
p999
aVdominican&amp;white
p1000
aVitalian
p1001
aVwhiteasianlatinmiddle-eastern
p1002
aVblackbutlikeallraces
p1003
aVwhite/venezuelan
p1004
aVwhiteblackasianmiddle-easternindianother
p1005
aVwhiteblackasian
p1006
aVirish/dominicanmix
p1007
aVbelizian
p1008
aVyugoslavianirish
p1009
aVpuertorican,cuban,andwhite
p1010
aVasian&amp;ebonymix
p1011
aVcaucasin
p1012
aVhonduran
p1013
aVwhiteasianlatinother
p1014
aVwhite(irish/italian)
p1015
aVpuertorican
p1016
aVoliveskincaucation
p1017
aVcaribbean
p1018
aVblack&mexican
p1019
aVwhitelatin
p1020
aVmixedheritage
p1021
aVjamaicanandblack
p1022
aVcaucasianwhite
p1023
aVindian/bangladesh
p1024
aVeligadol
p1025
aVwhiteblacklatinmiddle-easternother
p1026
aVebony
p1027
aVblk
p1028
aVwhitelatinother
p1029
aVwhiteblackasianlatinother
p1030
aVwhiteblackasianindianother
p1031
aVblackwelsh
p1032
aVislander
p1033
aVblacklatinindianother
p1034
aVmexican/persian
p1035
aVblacklatinother
p1036
aVblacklatinmiddle-easterneuropeanindianother
p1037
aVmaori,malaysia,european
p1038
aVtrinidadian
p1039
aVlatineuropeanindian
p1040
aVaboriginal
p1041
aVwhiteasianeuropeanother
p1042
aVwhiteblackmiddle-eastern
p1043
aVblackorlatino
p1044
aVwhiteblacklatinmiddle-easterneuropeanother
p1045
aVblack/indian
p1046
aVwhiteblacklatinother
p1047
aVeastindian
p1048
aVbelizeanfrench
p1049
aVwhiteasianlatinmiddle-easternother
p1050
aVblackmiddle-easternother
p1051
aVfilipino
p1052
aVfilipina
p1053
aVasianpinay
p1054
aVblackandmexicanandirish
p1055
aVpuertarican
p1056
aVasianother
p1057
aVmexican/asian
p1058
aVjapanesepinay
p1059
aVamerican
p1060
aVw
p1061
aVdarkmixed
p1062
aVpuertoricanjamaican
p1063
aVprettyassblackbitch
p1064
aVexotic
p1065
aVblackasian
p1066
aVafricanamerica
p1067
aVblack,hispanic
p1068
aVwhiteblackeuropeanindianother
p1069
aVmellemsten
p1070
aVwhiteeuropeanindianother
p1071
aVwhitemiddle-eastern
p1072
aVcubana
p1073
aVblackeuropeanother
p1074
aVspanish
p1075
aVmixxedbarbie
p1076
aVcubano
p1077
aVkorean/blkmixed
p1078
aVwhiteasianmiddle-easternother
p1079
aVblackeuropeanindian
p1080
aVirishanditalian
p1081
aVpuertoricanprincess
p1082
aVindianamdgerman
p1083
aVmilkchocolate
p1084
aVblacklatinmiddle-easternindianother
p1085
aVeuroasian
p1086
aVmixxed
p1087
aVmullatto
p1088
aVwhiteblackasianlatinmiddle-easternindian
p1089
aVblackasianlatinmiddle-easternindianother
p1090
aVirishandblack
p1091
aVbrazilian
p1092
aVfilipinapuertoricanspanishchines
p1093
aVwhite
p1094
aVlovelightskinnedormixedguys
p1095
aVblackamerican
p1096
aVlatineuropeanother
p1097
aVblackanindian
p1098
aVpuertoricancubanandwhite
p1099
aVwhiteindianother
p1100
aVmiddle-eastern
p1101
aVblackwhiteandpuertorican
p1102
aVblackasianother
p1103
aVasianlatinmiddle-easternindianother
p1104
aVblackindianother
p1105
aVcaribbean&amp;puertorican
p1106
aVcuban
p1107
aVwhitelatinmiddle-easterneuropean
p1108
aVirish,german,scottish,&amp;others
p1109
aVhispana
p1110
aVgreek
p1111
aVjamaicain
p1112
aVcaucasion
p1113
aVrussian
p1114
aVlatineuropeanindianother
p1115
aVwhiteblackmiddle-easterneuropean
p1116
aVmemphis
p1117
aVhaitian
p1118
aVcaucasian-white
p1119
aVblacklady
p1120
aVcaucasian*i'mreallyamutt!*
p1121
aVasianlatinindian
p1122
aVlatinmiddle-easternother
p1123
aVasain
p1124
aVaknative
p1125
aVhongkongchinese
p1126
aVbohemian
p1127
aVsbf
p1128
aVwhiteeuropean
p1129
aVpuertoricananditalian
p1130
aVmostlycaucasian
p1131
aVwhite/asian/nativeamerican
p1132
aVwhite,open
p1133
aVaa
p1134
aVblackandasian
p1135
aVirish
p1136
aVwhiteblacklatin
p1137
aVmixednhorny
p1138
aVeuropeanother
p1139
aVindianandblack
p1140
aVwhiteasianlatinindianother
p1141
aVblackasianlatinmiddle-easterneuropeanindianother
p1142
aVjamacianandcuban
p1143
aV100%snowbunny
p1144
aVmaori
p1145
aVirishnbrazilian
p1146
aVblacklatineuropeanindianother
p1147
aVnativeamericanandwhitemixed
p1148
aVallofthem
p1149
aVawhitehuman
p1150
aVasianlatinother
p1151
aVwhitemiddle-easterneuropean
p1152
aVasian-mix
p1153
aVhawaiian
p1154
aVhispanic
p1155
aVnativeamerican/white
p1156
aVsamoan
p1157
aVsexypetiteeuropean
p1158
aVmix
p1159
aVother
p1160
aVlatina
p1161
aVmiddle-easternindian
p1162
aVspanish/nativeamerican/africanam.
p1163
aVhalfmexicanhalfwhite
p1164
aVmellemsten
p1165
aVmultiple
p1166
aVasianeuropeanother
p1167
aVwhitemiddle-easternindian
p1168
aVhazel
p1169
aVblacklatinmiddle-easterneuropeanother
p1170
aVwht
p1171
aVwhiteblackeuropean
p1172
aVwhite/latina
p1173
aVlatinmiddle-easterneuropean
p1174
aVblackasianmiddle-easternindian
p1175
aVwhiteblackasianlatinmiddle-eastern
p1176
aVegyptian
p1177
aVasianlatinindianother
p1178
aVwhitelatineuropean
p1179
aVjapaneseamerican
p1180
aVblackmiddle-easterneuropean
p1181
aVasianlatineuropeanother
p1182
aVflilpinaandamerican
p1183
aVmultiracial
p1184
aVwhiteblacklatineuropean
p1185
aVwhite/indian
p1186
aVblacklatineuropeanindian
p1187
aVhispanic/indian
p1188
aVdominican/blk
p1189
aVcaucation
p1190
aVfilipinaspanish
p1191
aVwhitelatineuropeanindian
p1192
aVblackasianeuropean
p1193
aVwm'snat.amer.andforeignmen
p1194
atp1195
Rp1196
sVperson_eyecolor_feature
p1197
g2
((lp1198
Vdouble surprise
p1199
aVsea green
p1200
aVblue purple green red and black
p1201
aVemerald
p1202
aVcolor miel
p1203
aVdark br
p1204
aVdark brown
p1205
aVsexy green bedroom eyes
p1206
aVblueish
p1207
aVcrystal blue grey
p1208
aVhazel green
p1209
aVgreenish blue
p1210
aVsparkling green
p1211
aVbedroom eyes hazel
p1212
aVbluegreen
p1213
aVbrown
p1214
aVbrowm
p1215
aVgreen hazel
p1216
aVcolorful
p1217
aVgreen blue
p1218
aVgreenish brown
p1219
aVgreenhazel
p1220
aVskyblue
p1221
aVgray
p1222
aVbrown almost black
p1223
aVred sex
p1224
aVgreyblue
p1225
aVbright blue
p1226
aVgreenish
p1227
aVseductive blue
p1228
aVvery blue
p1229
aVmarrn
p1230
aVblue gray
p1231
aVbaby blue
p1232
aVbedroom
p1233
aVhazel amber starburst
p1234
aVgerman blue
p1235
aVblue eyed blonde
p1236
aVpure green
p1237
aVblue
p1238
aVlight brown
p1239
aVgorgeous green
p1240
aVbluegrey
p1241
aVblu
p1242
aVvery dark brown
p1243
aVsunny brown
p1244
aVblue or green
p1245
aVblue bedroom eyes
p1246
aVred
p1247
aVblueish green
p1248
aVcoffee brown eyes
p1249
aVand the finest awesome ass
p1250
aVnegros
p1251
aVblue green gray
p1252
aVmy seductive light chestnut brown e
p1253
aVdoes it matter
p1254
aVbig brown eyes
p1255
aVbluegreenish
p1256
aVcome look
p1257
aVdk brown
p1258
aVok
p1259
aVsexy ass hazel green bedroom
p1260
aVcafes
p1261
aVaqua
p1262
aVdrk brown
p1263
aVpale green
p1264
aVturquoise
p1265
aVbrown eyes
p1266
aVgrnblue
p1267
aVblue green grey
p1268
aVgolden
p1269
aVcolor
p1270
aVrare blue
p1271
aVbrn
p1272
aVyellow gold brown depends
p1273
aVblonde
p1274
aVseductive emerald green
p1275
aVblueish greenish
p1276
aVhazelgreen
p1277
aVdark black
p1278
aVi possess the qualities of the perfect playmate im going to leave you feeling completely satisfied
p1279
aVchanges from gold to green
p1280
aVgreenblue
p1281
aVbeautiful blue
p1282
aVblack
p1283
aVwhite
p1284
aVbluegreygreen
p1285
aVravishing
p1286
aVi got baby blue eyes
p1287
aVchestnut
p1288
aVeyes
p1289
aVlt hazel brown cat eyes
p1290
aVice blue
p1291
aVmine are blue
p1292
aVdeep greenhazel
p1293
aVbright blue eyes
p1294
aVcafs
p1295
aVstunning blue
p1296
aVbrwn or blue jus depends
p1297
aVhazelnut
p1298
aVgorgeous big bluegrey eyes
p1299
aVhazel green like cat eyes
p1300
aVdark green
p1301
aVelectric blue
p1302
aVblue yellow
p1303
aVgreygreen
p1304
aVchocolate brown
p1305
aVgrey
p1306
aVbig and dark
p1307
aVlight green
p1308
aVhi i love to please i am a independent fun friendly and open minded adult playmate my picture is very recent just call
p1309
aVbrown wear glasses
p1310
aVgreengrey
p1311
aVbrown and hungry see u deep in me
p1312
aVblue with a tint of green
p1313
aVbrow
p1314
aVbrwn
p1315
aVcoffee brown
p1316
aVchestnut brown
p1317
aVsmile that lights up a room
p1318
aVbig beautiful blue
p1319
aVlight blue
p1320
aVhazle
p1321
aVgrayish blue
p1322
aVcafes claro
p1323
aVgreenishblue
p1324
aVhazel green eyes
p1325
aVblue green
p1326
aVother
p1327
aVbrown green
p1328
aVblue amp brown
p1329
aVhlue
p1330
aVgreen eyes
p1331
aVcall now
p1332
aVligth brown
p1333
aVsimpy the best
p1334
aVred for sex
p1335
aVhazel
p1336
aVblue grey
p1337
aVbright green
p1338
aVgreenbluehazel
p1339
aVdeep blue
p1340
aVhazel eyes
p1341
aVblue eyes
p1342
aVbrown eye
p1343
aVhazel brown
p1344
aVblue like glass
p1345
aVmulti colored
p1346
aVlight
p1347
aVblue green n grey
p1348
aVdark brownblack
p1349
aVblue but they turn grey
p1350
aVgreen
p1351
aVhoney brown
p1352
aVbaby blues
p1353
aVgreybluegreen
p1354
aVgreen id
p1355
aVblue but turn grey
p1356
aVsea blue
p1357
atp1358
Rp1359
sVperson_hairlength_feature
p1360
g2
((lp1361
Vshoulder
p1362
aVshoulderlength
p1363
aVshort
p1364
aVwaylong
p1365
aVchinlength
p1366
aVmidback
p1367
aVlong
p1368
aVmilitary
p1369
atp1370
Rp1371
sVperson_piercings_feature
p1372
g2
((lp1373
Vnone
p1374
aVno
p1375
aVbelowthebelt
p1376
aVbreasts
p1377
aVface
p1378
aVother
p1379
aVbellybutton
p1380
aVtongue
p1381
aVyes
p1382
atp1383
Rp1384
sVperson_hairtype_feature
p1385
g2
((lp1386
Vstraight
p1387
aVsome curls
p1388
aVother
p1389
aVcurly
p1390
atp1391
Rp1392
sVperson_height_feature
p1393
g2
((lp1394
V768
p1395
aV213
p1396
aV211
p1397
aV219
p1398
aV133
p1399
aV132
p1400
aV131
p1401
aV130
p1402
aV137
p1403
aV135
p1404
aV694
p1405
aV699
p1406
aV28
p1407
aV540
p1408
aV4
p1409
aV8
p1410
aV7
p1411
aV120
p1412
aV121
p1413
aV122
p1414
aV123
p1415
aV124
p1416
aV125
p1417
aV126
p1418
aV127
p1419
aV128
p1420
aV129
p1421
aV91
p1422
aV50
p1423
aV146
p1424
aV988
p1425
aV199
p1426
aV198
p1427
aV147
p1428
aV194
p1429
aV196
p1430
aV986
p1431
aV190
p1432
aV193
p1433
aV192
p1434
aV115
p1435
aV392
p1436
aV145
p1437
aV110
p1438
aV113
p1439
aV112
p1440
aV118
p1441
aV830
p1442
aV429
p1443
aV3
p1444
aV368
p1445
aV917
p1446
aV308
p1447
aV585
p1448
aV588
p1449
aV108
p1450
aV109
p1451
aV102
p1452
aV103
p1453
aV100
p1454
aV101
p1455
aV106
p1456
aV107
p1457
aV104
p1458
aV105
p1459
aV903
p1460
aV780
p1461
aV436
p1462
aV604
p1463
aV258
p1464
aV259
p1465
aV179
p1466
aV178
p1467
aV177
p1468
aV176
p1469
aV175
p1470
aV174
p1471
aV173
p1472
aV172
p1473
aV171
p1474
aV170
p1475
aV182
p1476
aV183
p1477
aV180
p1478
aV181
p1479
aV186
p1480
aV187
p1481
aV508
p1482
aV185
p1483
aV188
p1484
aV189
p1485
aV658
p1486
aV707
p1487
aV184
p1488
aV191
p1489
aV6
p1490
aV168
p1491
aV169
p1492
aV164
p1493
aV165
p1494
aV166
p1495
aV167
p1496
aV160
p1497
aV161
p1498
aV162
p1499
aV163
p1500
aV10
p1501
aV12
p1502
aV114
p1503
aV722
p1504
aV151
p1505
aV150
p1506
aV153
p1507
aV152
p1508
aV744
p1509
aV154
p1510
aV157
p1511
aV156
p1512
aV159
p1513
aV158
p1514
aV756
p1515
aV1
p1516
aV5
p1517
aV155
p1518
aV201
p1519
aV200
p1520
aV203
p1521
aV619
p1522
aV142
p1523
aV140
p1524
aV206
p1525
aV208
p1526
aV148
p1527
aV149
p1528
aV11552
p1529
aV70
p1530
aV2
p1531
aV946
p1532
aV326
p1533
aV680
p1534
aV266
p1535
atp1536
Rp1537
sVperson_hipstype_feature
p1538
g2
((lp1539
V3612
p1540
aV70
p1541
aV60
p1542
aV132
p1543
aV62
p1544
aV64
p1545
aV136
p1546
aV66
p1547
aV69
p1548
aV24
p1549
aV25
p1550
aV26
p1551
aV27
p1552
aV20
p1553
aV21
p1554
aV22
p1555
aV23
p1556
aV28
p1557
aV29
p1558
aV0
p1559
aV2
p1560
aV4
p1561
aV6
p1562
aV8
p1563
aV98
p1564
aV125
p1565
aV3334
p1566
aV91
p1567
aV90
p1568
aV93
p1569
aV92
p1570
aV95
p1571
aV94
p1572
aV97
p1573
aV96
p1574
aV11
p1575
aV10
p1576
aV13
p1577
aV12
p1578
aV15
p1579
aV58
p1580
aV16
p1581
aV19
p1582
aV18
p1583
aV56
p1584
aV51
p1585
aV50
p1586
aV53
p1587
aV52
p1588
aV55
p1589
aV54
p1590
aV61
p1591
aV137
p1592
aV65
p1593
aV3940
p1594
aV556
p1595
aV88
p1596
aV89
p1597
aV3739
p1598
aV0000000
p1599
aV82
p1600
aV80
p1601
aV86
p1602
aV87
p1603
aV85
p1604
aV00
p1605
aV01
p1606
aV48
p1607
aV49
p1608
aV46
p1609
aV47
p1610
aV44
p1611
aV45
p1612
aV42
p1613
aV43
p1614
aV40
p1615
aV41
p1616
aV1
p1617
aV525
p1618
aV3
p1619
aV5
p1620
aV7
p1621
aV9
p1622
aV000000000
p1623
aV3812
p1624
aV140
p1625
aV75
p1626
aV000
p1627
aV72
p1628
aV71
p1629
aV3840
p1630
aV102
p1631
aV100
p1632
aV101
p1633
aV39
p1634
aV38
p1635
aV3212
p1636
aV14
p1637
aV33
p1638
aV32
p1639
aV31
p1640
aV30
p1641
aV37
p1642
aV36
p1643
aV35
p1644
aV34
p1645
aV59
p1646
aV355
p1647
aV74
p1648
atp1649
Rp1650
sVperson_bustbandsize_feature
p1651
g2
((lp1652
V30
p1653
aV42
p1654
aV26
p1655
aV43
p1656
aV38
p1657
aV40
p1658
aV34
p1659
aV32
p1660
aV23
p1661
aV24
p1662
aV25
p1663
aV39
p1664
aV27
p1665
aV20
p1666
aV21
p1667
aV22
p1668
aV49
p1669
aV46
p1670
aV47
p1671
aV44
p1672
aV45
p1673
aV28
p1674
aV29
p1675
aV35
p1676
aV41
p1677
aV33
p1678
aV37
p1679
aV36
p1680
aV48
p1681
aV31
p1682
aV50
p1683
atp1684
Rp1685
sVperson_tattoocount_feature
p1686
g2
((lp1687
Vtoungring
p1688
aVlargetatacrossab
p1689
aVlargebacktattoos
p1690
aVtattoosandpiercing
p1691
aValloverandpiercings
p1692
aVpiercingsndtattoos
p1693
aVtattoosdermalpiercings
p1694
aVone
p1695
aVtattoosonarmsandonback
p1696
aVyummy
p1697
aVtattooonmybackshoulder
p1698
aVseveraltattoos
p1699
aVejercitado
p1700
aVtattooareaplus
p1701
aVpretty
p1702
aVclitpiercedntatts
p1703
aVhandfuloftattoos
p1704
aVmoreinkthebetter
p1705
aVihaveseveral
p1706
aVtattoosandsomepiercings
p1707
aVtattedarmschestlegs
p1708
aVpiercingsamptattoos
p1709
aVlittletattoos
p1710
aVtattooscanbebeautiful
p1711
aVtrampstamponmyknob
p1712
aVprettylittlebutterfly
p1713
aVihaveafewtatoos
p1714
aVlittletats
p1715
aVtattooednpierced
p1716
aVhalfsleevechestanklewrist
p1717
aVmakesomelol
p1718
aVlovesink
p1719
aVmultipletattoos
p1720
aVtattooandpiercing
p1721
aVrosetattooonchest
p1722
aVpiercedandtattoos
p1723
aVafewtatsandpiercings
p1724
aVtattoostonguering
p1725
aVgottattoosnloveem
p1726
aVtattooscoveringmostofmybody
p1727
aVhastattoos
p1728
aVtattooareawsome
p1729
aVhavefunwithit
p1730
aVdivingbirdilovegod
p1731
aVlotsoftattoosandpiercings
p1732
aVlots
p1733
aVilovetattoos
p1734
aVsometats
p1735
aVshaved
p1736
aVtattoosnipplepiercings
p1737
aVtonguepiercinglippiercing
p1738
aVfewpiercings
p1739
aVupperearcartiledgepierced
p1740
aVafewtattoobellybuttonpiercings
p1741
aVsometattoos
p1742
aVtastful
p1743
aVpiercingsntattoos
p1744
aVafewclassytattoos
p1745
aVseveraltats
p1746
aVpiercingsandbutterflytattoos
p1747
aVtattoos
p1748
aVsomeinknipplepiercings
p1749
aVtattoosbellybuttonpiercing
p1750
aVperfectcurves
p1751
aVtattspiercing
p1752
aVtattooedandlovetattoos
p1753
aVpiercedclittandtongue
p1754
aVtattooedpierced
p1755
aVtattoosandpeircings
p1756
aVjuicyonbreast
p1757
aVmybodyismycanvas
p1758
aVsexy
p1759
aVtatsandpiercings
p1760
aVtatsamppiercings
p1761
aVc
p1762
aVmany
p1763
aVafewtattoosandnipplepiercings
p1764
aVtatsandpierced
p1765
aValot
p1766
aVsmalltattooyouwillhavetofind
p1767
aVshortansweet
p1768
aVtattspiercings
p1769
aVsexytats
p1770
aVonetattoo
p1771
aVissexy
p1772
aVlove
p1773
aVtattoosandpiecings
p1774
aVpiercedtongueamptatrtcalf
p1775
aVquarterlengthsleeve
p1776
aVvisible
p1777
aVloveink
p1778
aVlikes
p1779
aVmustliketatsihaveafew
p1780
aVnotafan
p1781
aVhiptattoo
p1782
aVinkedandpierced
p1783
aVloveitandlovetodoit
p1784
aVtwo
p1785
aVhoodpircingandtats
p1786
aVleftarmtattooseverywhere
p1787
aVankletattoonosepiercing
p1788
aVihavebeautifultattoos
p1789
aVlovemytats
p1790
aVtastefultattooes
p1791
aVsexytattoos
p1792
aVpierced
p1793
aVtattosandpercingslots
p1794
aVeverywhere
p1795
aVinkednipplerings
p1796
aVtattoobellybutton
p1797
aVtatsandpiercingsts
p1798
aVnone
p1799
aValil
p1800
aVtatsandseveralpiercings
p1801
aVseveralsexypiercingsntattoos
p1802
aVtattoostoungepierced
p1803
aVzombietattoos
p1804
aVihavesome
p1805
aVtattoosandpiercings
p1806
aVnoneyetbutgettingsomeindecemb
p1807
aVpiercedandtattooed
p1808
aVtattoosnpiercings
p1809
aVnosering
p1810
aVmanytattoos
p1811
aVpiercings
p1812
aVtattspiercedveryartisticlol
p1813
aVtonguepiercing
p1814
aVloveitandhaveit
p1815
aVawesome
p1816
aVtatspiercings
p1817
aVflowersandstars
p1818
aVacouple
p1819
aVthreetatooes
p1820
aVpiercingstattoos
p1821
aVihavelotsoftattoosandpiercing
p1822
aVhavenonefindsexy
p1823
aVtonsoftattoos
p1824
aVtattoosetc
p1825
aVtattoo
p1826
aVsexyliltatoo
p1827
aVsomethatyoushallsee
p1828
aVtattedup
p1829
aVtattoosearpiercedntongue
p1830
aVtattssnakebitestonguep
p1831
aVafewtattsonmyarms
p1832
aVtattoosonbackandrightribcage
p1833
aVapinkbutteryabovemypussy
p1834
aVneverdontlikeit
p1835
aVseveralsexyplacedtats
p1836
aVyesafew
p1837
aVafewlittletattoos
p1838
aVlovetattoos
p1839
aVnonevirgin
p1840
aVtatsonbotharmsfullbackpiece
p1841
aVtattoopiercings
p1842
aVarose
p1843
aVtattoomodel
p1844
aVlotsss
p1845
aVtatoos
p1846
aVnonestunningskin
p1847
aVcurrentlyhavetwotats
p1848
aVxmarksthespot
p1849
aVdiscreet
p1850
aVtatoosamppiercings
p1851
aVamust
p1852
aVtast
p1853
aVafewtatoossexyones
p1854
aVdragontattooonback
p1855
aVathletic
p1856
aVloveit
p1857
aVtattooes
p1858
aVtattooedpiercings
p1859
aVtattoosonarmsandwristpiercing
p1860
aVlotsatats
p1861
aVfewtats
p1862
aVyep
p1863
aVyes
p1864
aVtattooed
p1865
aVtattoosgaugedears
p1866
aVtattoosnbodypiercing
p1867
aVmanytattoosandpiercings
p1868
aVthinkink
p1869
aVpiercingsandtattoos
p1870
aVsomeonlycanseeinprivate
p1871
aVlovetats
p1872
aVtattoes
p1873
aVnosepiercingicantakeitout
p1874
aVtattoosonchest
p1875
aVtattooslots
p1876
aVtatties
p1877
aVlikesit
p1878
aVcovered
p1879
aVihavelots
p1880
aVtattooandtoungepiecing
p1881
aVtattoosamppiercings
p1882
aVihaveseveraltattoos
p1883
aValotoftattoosinsomebodypierc
p1884
aVneedmoretats
p1885
aVgotalil
p1886
aVtattoosandcartilagepiercings
p1887
aVtatsonarmsneckandback
p1888
aVflowertattoo
p1889
aVcoveredintats
p1890
aVbellybuttonpiercetatoo
p1891
aVwings
p1892
aVhavetattoosandpiercings
p1893
aVarmtatslipandtonguering
p1894
aVcanyoufindthem
p1895
aVseveral
p1896
aVshouldertomidbackdragon
p1897
aVlike
p1898
aVtatonbackofneck
p1899
aVcoupletats
p1900
aVbodystars
p1901
aVtstamp
p1902
aVpuzzlepiecetattoo
p1903
aVpiercedclitandtattoo
p1904
aVihavetattoosndpiercings
p1905
aVnice
p1906
aVstarsrosses
p1907
aVtatts
p1908
aVninetats
p1909
aVacoupleoftattoos
p1910
aVtattednpierced
p1911
aVnippleandtonguepiercing
p1912
aVsome
p1913
aVtattoosgauges
p1914
aViwant
p1915
aVlotsoftatoos
p1916
aVsmalltattsandpiercings
p1917
aVafewtatts
p1918
aVtatoo
p1919
aVihavetattoos
p1920
aVtatto
p1921
aVyouwillbesurprisewhere
p1922
aVheartsonmyass
p1923
aVphysicalbodyart
p1924
aVlovetatsihave
p1925
aVbellybutton
p1926
aVtattpiercing
p1927
aVtattooandpiercingontongue
p1928
aVthreerosesonback
p1929
aVxtattoos
p1930
aVtattoosadored
p1931
aVcanplaybodyartlol
p1932
aVtattoosandearspierced
p1933
aVtattooandpiercings
p1934
aVtatsoneonthighoneonshoulder
p1935
aVlotsoftats
p1936
aVtatsnpiercings
p1937
aVfourtattostwocartilagepierci
p1938
aVsurely
p1939
aVhaveacoupletattoos
p1940
aVseveralsexypiercingsandtattoos
p1941
aVnicetattoos
p1942
aVsomeink
p1943
aVihavepiercingsandatattoo
p1944
aVihaveonetattoohopesofmore
p1945
aVihavefourtattoos
p1946
aVbodypiercings
p1947
aVihaveafewtats
p1948
aVplus
p1949
aVbelllybuttonpiercing
p1950
aVturnsmeon
p1951
aVsometattoosandacouplepeircings
p1952
aVigotonetat
p1953
aVnotattoosonthisbody
p1954
aVtwotattoos
p1955
aVniceinkwork
p1956
aVafew
p1957
aVacoupletattoos
p1958
aVafewlittleones
p1959
aVandcounting
p1960
aVihavetats
p1961
aVthick
p1962
aVlovingbeingwrittenon
p1963
aVtattoosandnavalpiercing
p1964
aVlittle
p1965
aVpierceingsandtattoos
p1966
aVhiddenandtasteful
p1967
aVgoodatwhatidodontripoff
p1968
aVtattooonfootnavalandnose
p1969
aVtatt
p1970
aVprettylilbutterfly
p1971
aVloveitall
p1972
aVtats
p1973
aVrussiantattoo
p1974
aVsometatsandpiercings
p1975
aVihavelotsoftattoos
p1976
aVhum
p1977
aVanalenlargementmodification
p1978
aVtattoopeirced
p1979
aVmassages
p1980
aVsixtattoos
p1981
aVtattoosareaplus
p1982
aVclitpiercing
p1983
aVflowers
p1984
aVtattsandpiercings
p1985
aVinkedallover
p1986
aVtattooonrightforearm
p1987
aVmybodyisatemple
p1988
aVtattooonribcage
p1989
aVsmalltattoos
p1990
aVtattoosaplus
p1991
aVbodyart
p1992
aVthemorethebetter
p1993
aVtattoosandpircings
p1994
aVtattoosandbellybuttonpierced
p1995
aVtattoosndpiercings
p1996
aVtatsandpiercingsarereallysexy
p1997
aVnavaltongueandlippiercing
p1998
aVafewtattoos
p1999
aVnipplepiercingsfewtattoos
p2000
aValittleink
p2001
aVdragononribs
p2002
aVfloweronrib
p2003
aVtattoospiercing
p2004
aVpeircednipplesandbutterflytat
p2005
aVhave
p2006
aVink
p2007
aVcasualtastefultats
p2008
aVonetatfornowmoreeventually
p2009
aVtonguepiercingandtattoos
p2010
aVpiercingstats
p2011
aVno
p2012
aVimtatted
p2013
aVinked
p2014
aVhavetattoos
p2015
aVtattoospiercings
p2016
aVtatoosonmylegs
p2017
aVafewdiscretetattoos
p2018
aVtattooslipandtonguepierced
p2019
aVihaveink
p2020
aVtattooedandpierced
p2021
aVnoneyet
p2022
aVbutterfly
p2023
aVsometattoosandfacialpiercings
p2024
aVashootingstar
p2025
aVtasteful
p2026
aVpiercingandtattoos
p2027
aVfewtattoos
p2028
aVlotsofink
p2029
aVdonthaveanylookgoodonmen
p2030
aVsomee
p2031
aVpersianink
p2032
aVyesfew
p2033
aVreallywantmyfirsttattoosoon
p2034
aVarteenelbiscochoytatuajes
p2035
aVtatonback
p2036
aVpersiantattoo
p2037
aVwanttotrysomelol
p2038
aVheartsandroses
p2039
aVtattooonback
p2040
aViminked
p2041
aVmultiplepiercings
p2042
aVtattandpiercings
p2043
aVworkingonsleeve
p2044
aVtattooonleftshoulder
p2045
aVnopiercingnortattoo
p2046
aVtattoosandbellybuttonpiercing
p2047
aVjustonetattoofindoutwhere
p2048
atp2049
Rp2050
sVperson_gender_feature
p2051
g2
((lp2052
Vm
p2053
aVf
p2054
atp2055
Rp2056
s.